(imatplotlib.font_manager
FontManager
p1
(dp2
S'afm_lookup_cache'
p3
(dp4
sS'ttflist'
p5
(lp6
ccopy_reg
_reconstructor
p7
(cmatplotlib.font_manager
FontEntry
p8
c__builtin__
object
p9
NtRp10
(dp11
S'style'
p12
S'normal'
p13
sS'name'
p14
S'cmb10'
p15
sS'weight'
p16
I400
sS'stretch'
p17
g13
sS'variant'
p18
g13
sS'fname'
p19
S'/usr/share/matplotlib/mpl-data/fonts/ttf/cmb10.ttf'
p20
sS'size'
p21
S'scalable'
p22
sbag7
(g8
g9
NtRp23
(dp24
g12
g13
sg14
S'cmex10'
p25
sg16
I400
sg17
g13
sg18
g13
sg19
S'/usr/share/matplotlib/mpl-data/fonts/ttf/cmex10.ttf'
p26
sg21
g22
sbag7
(g8
g9
NtRp27
(dp28
g12
S'italic'
p29
sg14
S'STIXNonUnicode'
p30
sg16
I400
sg17
g13
sg18
g13
sg19
S'/usr/share/matplotlib/mpl-data/fonts/ttf/STIXNonUniIta.ttf'
p31
sg21
g22
sbag7
(g8
g9
NtRp32
(dp33
g12
g13
sg14
S'STIXSizeOneSym'
p34
sg16
I400
sg17
g13
sg18
g13
sg19
S'/usr/share/matplotlib/mpl-data/fonts/ttf/STIXSizOneSymReg.ttf'
p35
sg21
g22
sbag7
(g8
g9
NtRp36
(dp37
g12
g13
sg14
S'STIXSizeThreeSym'
p38
sg16
I400
sg17
g13
sg18
g13
sg19
S'/usr/share/matplotlib/mpl-data/fonts/ttf/STIXSizThreeSymReg.ttf'
p39
sg21
g22
sbag7
(g8
g9
NtRp40
(dp41
g12
g13
sg14
S'STIXSizeTwoSym'
p42
sg16
I700
sg17
g13
sg18
g13
sg19
S'/usr/share/matplotlib/mpl-data/fonts/ttf/STIXSizTwoSymBol.ttf'
p43
sg21
g22
sbag7
(g8
g9
NtRp44
(dp45
g12
g13
sg14
S'cmtt10'
p46
sg16
I400
sg17
g13
sg18
g13
sg19
S'/usr/share/matplotlib/mpl-data/fonts/ttf/cmtt10.ttf'
p47
sg21
g22
sbag7
(g8
g9
NtRp48
(dp49
g12
g13
sg14
S'STIXGeneral'
p50
sg16
I400
sg17
g13
sg18
g13
sg19
S'/usr/share/matplotlib/mpl-data/fonts/ttf/STIXGeneral.ttf'
p51
sg21
g22
sbag7
(g8
g9
NtRp52
(dp53
g12
g13
sg14
S'STIXSizeThreeSym'
p54
sg16
I700
sg17
g13
sg18
g13
sg19
S'/usr/share/matplotlib/mpl-data/fonts/ttf/STIXSizThreeSymBol.ttf'
p55
sg21
g22
sbag7
(g8
g9
NtRp56
(dp57
g12
g13
sg14
S'STIXNonUnicode'
p58
sg16
I400
sg17
g13
sg18
g13
sg19
S'/usr/share/matplotlib/mpl-data/fonts/ttf/STIXNonUni.ttf'
p59
sg21
g22
sbag7
(g8
g9
NtRp60
(dp61
g12
g13
sg14
S'STIXSizeFiveSym'
p62
sg16
I400
sg17
g13
sg18
g13
sg19
S'/usr/share/matplotlib/mpl-data/fonts/ttf/STIXSizFiveSymReg.ttf'
p63
sg21
g22
sbag7
(g8
g9
NtRp64
(dp65
g12
g13
sg14
S'STIXSizeOneSym'
p66
sg16
I700
sg17
g13
sg18
g13
sg19
S'/usr/share/matplotlib/mpl-data/fonts/ttf/STIXSizOneSymBol.ttf'
p67
sg21
g22
sbag7
(g8
g9
NtRp68
(dp69
g12
g13
sg14
S'STIXGeneral'
p70
sg16
I700
sg17
g13
sg18
g13
sg19
S'/usr/share/matplotlib/mpl-data/fonts/ttf/STIXGeneralBol.ttf'
p71
sg21
g22
sbag7
(g8
g9
NtRp72
(dp73
g12
g13
sg14
S'cmr10'
p74
sg16
I400
sg17
g13
sg18
g13
sg19
S'/usr/share/matplotlib/mpl-data/fonts/ttf/cmr10.ttf'
p75
sg21
g22
sbag7
(g8
g9
NtRp76
(dp77
g12
g13
sg14
S'STIXSizeTwoSym'
p78
sg16
I400
sg17
g13
sg18
g13
sg19
S'/usr/share/matplotlib/mpl-data/fonts/ttf/STIXSizTwoSymReg.ttf'
p79
sg21
g22
sbag7
(g8
g9
NtRp80
(dp81
g12
g13
sg14
S'STIXSizeFourSym'
p82
sg16
I400
sg17
g13
sg18
g13
sg19
S'/usr/share/matplotlib/mpl-data/fonts/ttf/STIXSizFourSymReg.ttf'
p83
sg21
g22
sbag7
(g8
g9
NtRp84
(dp85
g12
g13
sg14
S'cmsy10'
p86
sg16
I400
sg17
g13
sg18
g13
sg19
S'/usr/share/matplotlib/mpl-data/fonts/ttf/cmsy10.ttf'
p87
sg21
g22
sbag7
(g8
g9
NtRp88
(dp89
g12
g29
sg14
S'STIXNonUnicode'
p90
sg16
I700
sg17
g13
sg18
g13
sg19
S'/usr/share/matplotlib/mpl-data/fonts/ttf/STIXNonUniBolIta.ttf'
p91
sg21
g22
sbag7
(g8
g9
NtRp92
(dp93
g12
g13
sg14
S'cmss10'
p94
sg16
I400
sg17
g13
sg18
g13
sg19
S'/usr/share/matplotlib/mpl-data/fonts/ttf/cmss10.ttf'
p95
sg21
g22
sbag7
(g8
g9
NtRp96
(dp97
g12
g13
sg14
S'STIXSizeFourSym'
p98
sg16
I700
sg17
g13
sg18
g13
sg19
S'/usr/share/matplotlib/mpl-data/fonts/ttf/STIXSizFourSymBol.ttf'
p99
sg21
g22
sbag7
(g8
g9
NtRp100
(dp101
g12
g29
sg14
S'STIXGeneral'
p102
sg16
I400
sg17
g13
sg18
g13
sg19
S'/usr/share/matplotlib/mpl-data/fonts/ttf/STIXGeneralItalic.ttf'
p103
sg21
g22
sbag7
(g8
g9
NtRp104
(dp105
g12
g13
sg14
S'cmmi10'
p106
sg16
I400
sg17
g13
sg18
g13
sg19
S'/usr/share/matplotlib/mpl-data/fonts/ttf/cmmi10.ttf'
p107
sg21
g22
sbag7
(g8
g9
NtRp108
(dp109
g12
g13
sg14
S'STIXNonUnicode'
p110
sg16
I700
sg17
g13
sg18
g13
sg19
S'/usr/share/matplotlib/mpl-data/fonts/ttf/STIXNonUniBol.ttf'
p111
sg21
g22
sbag7
(g8
g9
NtRp112
(dp113
g12
g29
sg14
S'STIXGeneral'
p114
sg16
I700
sg17
g13
sg18
g13
sg19
S'/usr/share/matplotlib/mpl-data/fonts/ttf/STIXGeneralBolIta.ttf'
p115
sg21
g22
sbag7
(g8
g9
NtRp116
(dp117
g12
g13
sg14
S'Webdings'
p118
sg16
I400
sg17
g13
sg18
g13
sg19
S'/usr/share/fonts/truetype/msttcorefonts/webdings.ttf'
p119
sg21
g22
sbag7
(g8
g9
NtRp120
(dp121
g12
g13
sg14
S'KacstTitle'
p122
sg16
I400
sg17
g13
sg18
g13
sg19
S'/usr/share/fonts/truetype/kacst/KacstTitle.ttf'
p123
sg21
g22
sbag7
(g8
g9
NtRp124
(dp125
g12
S'oblique'
p126
sg14
S'Tlwg Typo'
p127
sg16
I400
sg17
g13
sg18
g13
sg19
S'/usr/share/fonts/truetype/tlwg/TlwgTypo-Oblique.ttf'
p128
sg21
g22
sbag7
(g8
g9
NtRp129
(dp130
g12
g13
sg14
S'Mallige'
p131
sg16
I700
sg17
g13
sg18
g13
sg19
S'/usr/share/fonts/truetype/ttf-indic-fonts-core/Malige-b.ttf'
p132
sg21
g22
sbag7
(g8
g9
NtRp133
(dp134
g12
g13
sg14
S'Umpush'
p135
sg16
I400
sg17
g13
sg18
g13
sg19
S'/usr/share/fonts/truetype/tlwg/Umpush.ttf'
p136
sg21
g22
sbag7
(g8
g9
NtRp137
(dp138
g12
g13
sg14
S'Garuda'
p139
sg16
I700
sg17
g13
sg18
g13
sg19
S'/usr/share/fonts/truetype/tlwg/Garuda-Bold.ttf'
p140
sg21
g22
sbag7
(g8
g9
NtRp141
(dp142
g12
g13
sg14
S'Times New Roman'
p143
sg16
I500
sg17
g13
sg18
g13
sg19
S'/usr/share/fonts/truetype/msttcorefonts/Times_New_Roman.ttf'
p144
sg21
g22
sbag7
(g8
g9
NtRp145
(dp146
g12
g29
sg14
S'Verdana'
p147
sg16
I400
sg17
g13
sg18
g13
sg19
S'/usr/share/fonts/truetype/msttcorefonts/verdanai.ttf'
p148
sg21
g22
sbag7
(g8
g9
NtRp149
(dp150
g12
g13
sg14
S'FreeSerif'
p151
sg16
I400
sg17
g13
sg18
g13
sg19
S'/usr/share/fonts/truetype/freefont/FreeSerif.ttf'
p152
sg21
g22
sbag7
(g8
g9
NtRp153
(dp154
g12
g29
sg14
S'rsfs10'
p155
sg16
I400
sg17
g13
sg18
g13
sg19
S'/usr/share/fonts/truetype/ttf-lyx/rsfs10.ttf'
p156
sg21
g22
sbag7
(g8
g9
NtRp157
(dp158
g12
g13
sg14
S'DejaVu Sans'
p159
sg16
I400
sg17
S'condensed'
p160
sg18
g13
sg19
S'/usr/share/fonts/truetype/ttf-dejavu/DejaVuSansCondensed.ttf'
p161
sg21
g22
sbag7
(g8
g9
NtRp162
(dp163
g12
g126
sg14
S'Loma'
p164
sg16
I400
sg17
g13
sg18
g13
sg19
S'/usr/share/fonts/truetype/tlwg/Loma-Oblique.ttf'
p165
sg21
g22
sbag7
(g8
g9
NtRp166
(dp167
g12
g126
sg14
S'Norasi'
p168
sg16
I400
sg17
g13
sg18
g13
sg19
S'/usr/share/fonts/truetype/tlwg/Norasi-Oblique.ttf'
p169
sg21
g22
sbag7
(g8
g9
NtRp170
(dp171
g12
g126
sg14
S'Kinnari'
p172
sg16
I700
sg17
g13
sg18
g13
sg19
S'/usr/share/fonts/truetype/tlwg/Kinnari-BoldOblique.ttf'
p173
sg21
g22
sbag7
(g8
g9
NtRp174
(dp175
g12
g13
sg14
S'Arial'
p176
sg16
I700
sg17
g13
sg18
g13
sg19
S'/usr/share/fonts/truetype/msttcorefonts/Arial_Bold.ttf'
p177
sg21
g22
sbag7
(g8
g9
NtRp178
(dp179
g12
g13
sg14
S'KacstPoster'
p180
sg16
I400
sg17
g13
sg18
g13
sg19
S'/usr/share/fonts/truetype/kacst/KacstPoster.ttf'
p181
sg21
g22
sbag7
(g8
g9
NtRp182
(dp183
g12
g13
sg14
S'DejaVu Sans Mono'
p184
sg16
I400
sg17
g13
sg18
g13
sg19
S'/usr/share/fonts/truetype/ttf-dejavu/DejaVuSansMono.ttf'
p185
sg21
g22
sbag7
(g8
g9
NtRp186
(dp187
g12
g13
sg14
S'Lohit Punjabi'
p188
sg16
I400
sg17
g13
sg18
g13
sg19
S'/usr/share/fonts/truetype/ttf-punjabi-fonts/lohit_pa.ttf'
p189
sg21
g22
sbag7
(g8
g9
NtRp190
(dp191
g12
g13
sg14
S'Meera'
p192
sg16
I400
sg17
g13
sg18
g13
sg19
S'/usr/share/fonts/truetype/ttf-indic-fonts-core/Meera_04.ttf'
p193
sg21
g22
sbag7
(g8
g9
NtRp194
(dp195
g12
g13
sg14
S'TakaoPGothic'
p196
sg16
I400
sg17
g13
sg18
g13
sg19
S'/usr/share/fonts/truetype/fonts-japanese-gothic.ttf'
p197
sg21
g22
sbag7
(g8
g9
NtRp198
(dp199
g12
g13
sg14
S'Liberation Mono'
p200
sg16
I700
sg17
g13
sg18
g13
sg19
S'/usr/share/fonts/truetype/liberation/LiberationMono-Bold.ttf'
p201
sg21
g22
sbag7
(g8
g9
NtRp202
(dp203
g12
g13
sg14
S'Georgia'
p204
sg16
I700
sg17
g13
sg18
g13
sg19
S'/usr/share/fonts/truetype/msttcorefonts/Georgia_Bold.ttf'
p205
sg21
g22
sbag7
(g8
g9
NtRp206
(dp207
g12
g126
sg14
S'Umpush'
p208
sg16
I200
sg17
g13
sg18
g13
sg19
S'/usr/share/fonts/truetype/tlwg/Umpush-LightOblique.ttf'
p209
sg21
g22
sbag7
(g8
g9
NtRp210
(dp211
g12
g13
sg14
S'FreeSerif'
p212
sg16
I700
sg17
g13
sg18
g13
sg19
S'/usr/share/fonts/truetype/freefont/FreeSerifBold.ttf'
p213
sg21
g22
sbag7
(g8
g9
NtRp214
(dp215
g12
g126
sg14
S'FreeMono'
p216
sg16
I700
sg17
g13
sg18
g13
sg19
S'/usr/share/fonts/truetype/freefont/FreeMonoBoldOblique.ttf'
p217
sg21
g22
sbag7
(g8
g9
NtRp218
(dp219
g12
g13
sg14
S'Tlwg Typo'
p220
sg16
I400
sg17
g13
sg18
g13
sg19
S'/usr/share/fonts/truetype/tlwg/TlwgTypo.ttf'
p221
sg21
g22
sbag7
(g8
g9
NtRp222
(dp223
g12
g13
sg14
S'DejaVu Serif'
p224
sg16
I700
sg17
g13
sg18
g13
sg19
S'/usr/share/fonts/truetype/ttf-dejavu/DejaVuSerif-Bold.ttf'
p225
sg21
g22
sbag7
(g8
g9
NtRp226
(dp227
g12
g13
sg14
S'Georgia'
p228
sg16
I700
sg17
g13
sg18
g13
sg19
S'/usr/share/fonts/truetype/msttcorefonts/georgiab.ttf'
p229
sg21
g22
sbag7
(g8
g9
NtRp230
(dp231
g12
g13
sg14
S'DejaVu Serif'
p232
sg16
I400
sg17
g13
sg18
g13
sg19
S'/usr/share/fonts/truetype/ttf-dejavu/DejaVuSerif.ttf'
p233
sg21
g22
sbag7
(g8
g9
NtRp234
(dp235
g12
g13
sg14
S'Liberation Sans Narrow'
p236
sg16
I700
sg17
g160
sg18
g13
sg19
S'/usr/share/fonts/truetype/liberation/LiberationSansNarrow-Bold.ttf'
p237
sg21
g22
sbag7
(g8
g9
NtRp238
(dp239
g12
g126
sg14
S'FreeSans'
p240
sg16
I400
sg17
g13
sg18
g13
sg19
S'/usr/share/fonts/truetype/freefont/FreeSansOblique.ttf'
p241
sg21
g22
sbag7
(g8
g9
NtRp242
(dp243
g12
g13
sg14
S'Comic Sans MS'
p244
sg16
I700
sg17
g13
sg18
g13
sg19
S'/usr/share/fonts/truetype/msttcorefonts/Comic_Sans_MS_Bold.ttf'
p245
sg21
g22
sbag7
(g8
g9
NtRp246
(dp247
g12
g13
sg14
S'Liberation Mono'
p248
sg16
I400
sg17
g13
sg18
g13
sg19
S'/usr/share/fonts/truetype/liberation/LiberationMono-Regular.ttf'
p249
sg21
g22
sbag7
(g8
g9
NtRp250
(dp251
g12
g13
sg14
S'Liberation Sans'
p252
sg16
I700
sg17
g13
sg18
g13
sg19
S'/usr/share/fonts/truetype/liberation/LiberationSans-Bold.ttf'
p253
sg21
g22
sbag7
(g8
g9
NtRp254
(dp255
g12
g13
sg14
S'Lohit Hindi'
p256
sg16
I400
sg17
g13
sg18
g13
sg19
S'/usr/share/fonts/truetype/ttf-indic-fonts-core/lohit_hi.ttf'
p257
sg21
g22
sbag7
(g8
g9
NtRp258
(dp259
g12
g13
sg14
S'Courier New'
p260
sg16
I700
sg17
g13
sg18
g13
sg19
S'/usr/share/fonts/truetype/msttcorefonts/Courier_New_Bold.ttf'
p261
sg21
g22
sbag7
(g8
g9
NtRp262
(dp263
g12
g29
sg14
S'Georgia'
p264
sg16
I700
sg17
g13
sg18
g13
sg19
S'/usr/share/fonts/truetype/msttcorefonts/Georgia_Bold_Italic.ttf'
p265
sg21
g22
sbag7
(g8
g9
NtRp266
(dp267
g12
g126
sg14
S'DejaVu Sans'
p268
sg16
I400
sg17
g13
sg18
g13
sg19
S'/usr/share/fonts/truetype/ttf-dejavu/DejaVuSans-Oblique.ttf'
p269
sg21
g22
sbag7
(g8
g9
NtRp270
(dp271
g12
g13
sg14
S'Ubuntu'
p272
sg16
I400
sg17
g13
sg18
g13
sg19
S'/usr/share/fonts/truetype/ubuntu-font-family/Ubuntu-R.ttf'
p273
sg21
g22
sbag7
(g8
g9
NtRp274
(dp275
g12
g29
sg14
S'Times New Roman'
p276
sg16
I700
sg17
g13
sg18
g13
sg19
S'/usr/share/fonts/truetype/msttcorefonts/Times_New_Roman_Bold_Italic.ttf'
p277
sg21
g22
sbag7
(g8
g9
NtRp278
(dp279
g12
g13
sg14
S'eufm10'
p280
sg16
I400
sg17
g13
sg18
g13
sg19
S'/usr/share/fonts/truetype/ttf-lyx/eufm10.ttf'
p281
sg21
g22
sbag7
(g8
g9
NtRp282
(dp283
g12
g13
sg14
S'Garuda'
p284
sg16
I400
sg17
g13
sg18
g13
sg19
S'/usr/share/fonts/truetype/tlwg/Garuda.ttf'
p285
sg21
g22
sbag7
(g8
g9
NtRp286
(dp287
g12
g126
sg14
S'DejaVu Sans'
p288
sg16
I700
sg17
g13
sg18
g13
sg19
S'/usr/share/fonts/truetype/ttf-dejavu/DejaVuSans-BoldOblique.ttf'
p289
sg21
g22
sbag7
(g8
g9
NtRp290
(dp291
g12
g13
sg14
S'Tlwg Typist'
p292
sg16
I400
sg17
g13
sg18
g13
sg19
S'/usr/share/fonts/truetype/tlwg/TlwgTypist.ttf'
p293
sg21
g22
sbag7
(g8
g9
NtRp294
(dp295
g12
g13
sg14
S'NanumGothic'
p296
sg16
I400
sg17
g13
sg18
g13
sg19
S'/usr/share/fonts/truetype/nanum/NanumGothic.ttf'
p297
sg21
g22
sbag7
(g8
g9
NtRp298
(dp299
g12
g13
sg14
S'wasy10'
p300
sg16
I400
sg17
g13
sg18
g13
sg19
S'/usr/share/fonts/truetype/ttf-lyx/wasy10.ttf'
p301
sg21
g22
sbag7
(g8
g9
NtRp302
(dp303
g12
g13
sg14
S'Impact'
p304
sg16
I400
sg17
g13
sg18
g13
sg19
S'/usr/share/fonts/truetype/msttcorefonts/Impact.ttf'
p305
sg21
g22
sbag7
(g8
g9
NtRp306
(dp307
g12
g13
sg14
S'mry_KacstQurn'
p308
sg16
I400
sg17
g13
sg18
g13
sg19
S'/usr/share/fonts/truetype/kacst/mry_KacstQurn.ttf'
p309
sg21
g22
sbag7
(g8
g9
NtRp310
(dp311
g12
g13
sg14
S'Georgia'
p312
sg16
I400
sg17
g13
sg18
g13
sg19
S'/usr/share/fonts/truetype/msttcorefonts/Georgia.ttf'
p313
sg21
g22
sbag7
(g8
g9
NtRp314
(dp315
g12
g126
sg14
S'TlwgMono'
p316
sg16
I400
sg17
g13
sg18
g13
sg19
S'/usr/share/fonts/truetype/tlwg/TlwgMono-Oblique.ttf'
p317
sg21
g22
sbag7
(g8
g9
NtRp318
(dp319
g12
g13
sg14
S'msbm10'
p320
sg16
I400
sg17
g13
sg18
g13
sg19
S'/usr/share/fonts/truetype/ttf-lyx/msbm10.ttf'
p321
sg21
g22
sbag7
(g8
g9
NtRp322
(dp323
g12
g13
sg14
S'TlwgMono'
p324
sg16
I700
sg17
g13
sg18
g13
sg19
S'/usr/share/fonts/truetype/tlwg/TlwgMono-Bold.ttf'
p325
sg21
g22
sbag7
(g8
g9
NtRp326
(dp327
g12
g29
sg14
S'Liberation Mono'
p328
sg16
I400
sg17
g13
sg18
g13
sg19
S'/usr/share/fonts/truetype/liberation/LiberationMono-Italic.ttf'
p329
sg21
g22
sbag7
(g8
g9
NtRp330
(dp331
g12
g29
sg14
S'Liberation Serif'
p332
sg16
I700
sg17
g13
sg18
g13
sg19
S'/usr/share/fonts/truetype/liberation/LiberationSerif-BoldItalic.ttf'
p333
sg21
g22
sbag7
(g8
g9
NtRp334
(dp335
g12
g13
sg14
S'Andale Mono'
p336
sg16
I400
sg17
g13
sg18
g13
sg19
S'/usr/share/fonts/truetype/msttcorefonts/andalemo.ttf'
p337
sg21
g22
sbag7
(g8
g9
NtRp338
(dp339
g12
g13
sg14
S'DejaVu Sans'
p340
sg16
I400
sg17
g13
sg18
g13
sg19
S'/usr/share/fonts/truetype/ttf-dejavu/DejaVuSans.ttf'
p341
sg21
g22
sbag7
(g8
g9
NtRp342
(dp343
g12
g29
sg14
S'Arial'
p344
sg16
I700
sg17
g13
sg18
g13
sg19
S'/usr/share/fonts/truetype/msttcorefonts/arialbi.ttf'
p345
sg21
g22
sbag7
(g8
g9
NtRp346
(dp347
g12
g13
sg14
S'Liberation Serif'
p348
sg16
I700
sg17
g13
sg18
g13
sg19
S'/usr/share/fonts/truetype/liberation/LiberationSerif-Bold.ttf'
p349
sg21
g22
sbag7
(g8
g9
NtRp350
(dp351
g12
g13
sg14
S'KacstOne'
p352
sg16
I700
sg17
g13
sg18
g13
sg19
S'/usr/share/fonts/truetype/kacst-one/KacstOne-Bold.ttf'
p353
sg21
g22
sbag7
(g8
g9
NtRp354
(dp355
g12
g13
sg14
S'Verdana'
p356
sg16
I400
sg17
g13
sg18
g13
sg19
S'/usr/share/fonts/truetype/msttcorefonts/Verdana.ttf'
p357
sg21
g22
sbag7
(g8
g9
NtRp358
(dp359
g12
g13
sg14
S'NanumMyeongjo'
p360
sg16
I700
sg17
g13
sg18
g13
sg19
S'/usr/share/fonts/truetype/nanum/NanumMyeongjoBold.ttf'
p361
sg21
g22
sbag7
(g8
g9
NtRp362
(dp363
g12
g13
sg14
S'Waree'
p364
sg16
I700
sg17
g13
sg18
g13
sg19
S'/usr/share/fonts/truetype/tlwg/Waree-Bold.ttf'
p365
sg21
g22
sbag7
(g8
g9
NtRp366
(dp367
g12
g13
sg14
S'Pothana2000'
p368
sg16
I400
sg17
g13
sg18
g13
sg19
S'/usr/share/fonts/truetype/ttf-indic-fonts-core/Pothana2000.ttf'
p369
sg21
g22
sbag7
(g8
g9
NtRp370
(dp371
g12
g13
sg14
S'Phetsarath OT'
p372
sg16
I400
sg17
g13
sg18
g13
sg19
S'/usr/share/fonts/truetype/lao/Phetsarath_OT.ttf'
p373
sg21
g22
sbag7
(g8
g9
NtRp374
(dp375
g12
g126
sg14
S'DejaVu Sans'
p376
sg16
I400
sg17
g160
sg18
g13
sg19
S'/usr/share/fonts/truetype/ttf-dejavu/DejaVuSansCondensed-Oblique.ttf'
p377
sg21
g22
sbag7
(g8
g9
NtRp378
(dp379
g12
g13
sg14
S'Courier New'
p380
sg16
I400
sg17
g13
sg18
g13
sg19
S'/usr/share/fonts/truetype/msttcorefonts/cour.ttf'
p381
sg21
g22
sbag7
(g8
g9
NtRp382
(dp383
g12
g13
sg14
S'ori1Uni'
p384
sg16
I500
sg17
g13
sg18
g13
sg19
S'/usr/share/fonts/truetype/ttf-indic-fonts-core/utkal.ttf'
p385
sg21
g22
sbag7
(g8
g9
NtRp386
(dp387
g12
g13
sg14
S'KacstQurn'
p388
sg16
I400
sg17
g13
sg18
g13
sg19
S'/usr/share/fonts/truetype/kacst/KacstQurn.ttf'
p389
sg21
g22
sbag7
(g8
g9
NtRp390
(dp391
g12
g13
sg14
S'KacstDigital'
p392
sg16
I400
sg17
g13
sg18
g13
sg19
S'/usr/share/fonts/truetype/kacst/KacstDigital.ttf'
p393
sg21
g22
sbag7
(g8
g9
NtRp394
(dp395
g12
g13
sg14
S'TakaoPGothic'
p396
sg16
I400
sg17
g13
sg18
g13
sg19
S'/usr/share/fonts/truetype/takao-gothic/TakaoPGothic.ttf'
p397
sg21
g22
sbag7
(g8
g9
NtRp398
(dp399
g12
g29
sg14
S'DejaVu Serif'
p400
sg16
I700
sg17
g13
sg18
g13
sg19
S'/usr/share/fonts/truetype/ttf-dejavu/DejaVuSerif-BoldItalic.ttf'
p401
sg21
g22
sbag7
(g8
g9
NtRp402
(dp403
g12
g13
sg14
S'KacstScreen'
p404
sg16
I400
sg17
g13
sg18
g13
sg19
S'/usr/share/fonts/truetype/kacst/KacstScreen.ttf'
p405
sg21
g22
sbag7
(g8
g9
NtRp406
(dp407
g12
g13
sg14
S'Trebuchet MS'
p408
sg16
I400
sg17
g13
sg18
g13
sg19
S'/usr/share/fonts/truetype/msttcorefonts/Trebuchet_MS.ttf'
p409
sg21
g22
sbag7
(g8
g9
NtRp410
(dp411
g12
g126
sg14
S'DejaVu Sans'
p412
sg16
I700
sg17
g160
sg18
g13
sg19
S'/usr/share/fonts/truetype/ttf-dejavu/DejaVuSansCondensed-BoldOblique.ttf'
p413
sg21
g22
sbag7
(g8
g9
NtRp414
(dp415
g12
g13
sg14
S'Kedage'
p416
sg16
I700
sg17
g13
sg18
g13
sg19
S'/usr/share/fonts/truetype/ttf-indic-fonts-core/Kedage-b.ttf'
p417
sg21
g22
sbag7
(g8
g9
NtRp418
(dp419
g12
g13
sg14
S'DejaVu Serif'
p420
sg16
I700
sg17
g160
sg18
g13
sg19
S'/usr/share/fonts/truetype/ttf-dejavu/DejaVuSerifCondensed-Bold.ttf'
p421
sg21
g22
sbag7
(g8
g9
NtRp422
(dp423
g12
g13
sg14
S'Ubuntu Mono'
p424
sg16
I400
sg17
g13
sg18
g13
sg19
S'/usr/share/fonts/truetype/ubuntu-font-family/UbuntuMono-R.ttf'
p425
sg21
g22
sbag7
(g8
g9
NtRp426
(dp427
g12
g29
sg14
S'Trebuchet MS'
p428
sg16
I400
sg17
g13
sg18
g13
sg19
S'/usr/share/fonts/truetype/msttcorefonts/Trebuchet_MS_Italic.ttf'
p429
sg21
g22
sbag7
(g8
g9
NtRp430
(dp431
g12
g13
sg14
S'Courier New'
p432
sg16
I400
sg17
g13
sg18
g13
sg19
S'/usr/share/fonts/truetype/msttcorefonts/Courier_New.ttf'
p433
sg21
g22
sbag7
(g8
g9
NtRp434
(dp435
g12
g13
sg14
S'Comic Sans MS'
p436
sg16
I700
sg17
g13
sg18
g13
sg19
S'/usr/share/fonts/truetype/msttcorefonts/comicbd.ttf'
p437
sg21
g22
sbag7
(g8
g9
NtRp438
(dp439
g12
g13
sg14
S'Norasi'
p440
sg16
I700
sg17
g13
sg18
g13
sg19
S'/usr/share/fonts/truetype/tlwg/Norasi-Bold.ttf'
p441
sg21
g22
sbag7
(g8
g9
NtRp442
(dp443
g12
g29
sg14
S'Norasi'
p444
sg16
I700
sg17
g13
sg18
g13
sg19
S'/usr/share/fonts/truetype/tlwg/Norasi-BoldItalic.ttf'
p445
sg21
g22
sbag7
(g8
g9
NtRp446
(dp447
g12
g13
sg14
S'Arial'
p448
sg16
I400
sg17
g13
sg18
g13
sg19
S'/usr/share/fonts/truetype/msttcorefonts/Arial.ttf'
p449
sg21
g22
sbag7
(g8
g9
NtRp450
(dp451
g12
g13
sg14
S'Umpush'
p452
sg16
I700
sg17
g13
sg18
g13
sg19
S'/usr/share/fonts/truetype/tlwg/Umpush-Bold.ttf'
p453
sg21
g22
sbag7
(g8
g9
NtRp454
(dp455
g12
g29
sg14
S'Courier New'
p456
sg16
I700
sg17
g13
sg18
g13
sg19
S'/usr/share/fonts/truetype/msttcorefonts/courbi.ttf'
p457
sg21
g22
sbag7
(g8
g9
NtRp458
(dp459
g12
g13
sg14
S'Times New Roman'
p460
sg16
I500
sg17
g13
sg18
g13
sg19
S'/usr/share/fonts/truetype/msttcorefonts/times.ttf'
p461
sg21
g22
sbag7
(g8
g9
NtRp462
(dp463
g12
g13
sg14
S'DejaVu Sans'
p464
sg16
I700
sg17
g160
sg18
g13
sg19
S'/usr/share/fonts/truetype/ttf-dejavu/DejaVuSansCondensed-Bold.ttf'
p465
sg21
g22
sbag7
(g8
g9
NtRp466
(dp467
g12
g29
sg14
S'Verdana'
p468
sg16
I400
sg17
g13
sg18
g13
sg19
S'/usr/share/fonts/truetype/msttcorefonts/Verdana_Italic.ttf'
p469
sg21
g22
sbag7
(g8
g9
NtRp470
(dp471
g12
g13
sg14
S'FreeMono'
p472
sg16
I400
sg17
g13
sg18
g13
sg19
S'/usr/share/fonts/truetype/freefont/FreeMono.ttf'
p473
sg21
g22
sbag7
(g8
g9
NtRp474
(dp475
g12
g13
sg14
S'Mallige'
p476
sg16
I400
sg17
g13
sg18
g13
sg19
S'/usr/share/fonts/truetype/ttf-indic-fonts-core/Malige-n.ttf'
p477
sg21
g22
sbag7
(g8
g9
NtRp478
(dp479
g12
g13
sg14
S'KacstNaskh'
p480
sg16
I400
sg17
g13
sg18
g13
sg19
S'/usr/share/fonts/truetype/kacst/KacstNaskh.ttf'
p481
sg21
g22
sbag7
(g8
g9
NtRp482
(dp483
g12
g13
sg14
S'Rekha'
p484
sg16
I400
sg17
g13
sg18
g13
sg19
S'/usr/share/fonts/truetype/ttf-indic-fonts-core/Rekha.ttf'
p485
sg21
g22
sbag7
(g8
g9
NtRp486
(dp487
g12
g29
sg14
S'Liberation Sans Narrow'
p488
sg16
I700
sg17
g160
sg18
g13
sg19
S'/usr/share/fonts/truetype/liberation/LiberationSansNarrow-BoldItalic.ttf'
p489
sg21
g22
sbag7
(g8
g9
NtRp490
(dp491
g12
g126
sg14
S'Norasi'
p492
sg16
I700
sg17
g13
sg18
g13
sg19
S'/usr/share/fonts/truetype/tlwg/Norasi-BoldOblique.ttf'
p493
sg21
g22
sbag7
(g8
g9
NtRp494
(dp495
g12
g13
sg14
S'Trebuchet MS'
p496
sg16
I400
sg17
g13
sg18
g13
sg19
S'/usr/share/fonts/truetype/msttcorefonts/trebuc.ttf'
p497
sg21
g22
sbag7
(g8
g9
NtRp498
(dp499
g12
g29
sg14
S'DejaVu Serif'
p500
sg16
I700
sg17
g160
sg18
g13
sg19
S'/usr/share/fonts/truetype/ttf-dejavu/DejaVuSerifCondensed-BoldItalic.ttf'
p501
sg21
g22
sbag7
(g8
g9
NtRp502
(dp503
g12
g13
sg14
S'Sawasdee'
p504
sg16
I400
sg17
g13
sg18
g13
sg19
S'/usr/share/fonts/truetype/tlwg/Sawasdee.ttf'
p505
sg21
g22
sbag7
(g8
g9
NtRp506
(dp507
g12
g13
sg14
S'KacstOne'
p508
sg16
I400
sg17
g13
sg18
g13
sg19
S'/usr/share/fonts/truetype/kacst-one/KacstOne.ttf'
p509
sg21
g22
sbag7
(g8
g9
NtRp510
(dp511
g12
g13
sg14
S'FreeSans'
p512
sg16
I700
sg17
g13
sg18
g13
sg19
S'/usr/share/fonts/truetype/freefont/FreeSansBold.ttf'
p513
sg21
g22
sbag7
(g8
g9
NtRp514
(dp515
g12
g126
sg14
S'Tlwg Typist'
p516
sg16
I700
sg17
g13
sg18
g13
sg19
S'/usr/share/fonts/truetype/tlwg/TlwgTypist-BoldOblique.ttf'
p517
sg21
g22
sbag7
(g8
g9
NtRp518
(dp519
g12
g13
sg14
S'Lohit Bengali'
p520
sg16
I400
sg17
g13
sg18
g13
sg19
S'/usr/share/fonts/truetype/ttf-indic-fonts-core/lohit_bn.ttf'
p521
sg21
g22
sbag7
(g8
g9
NtRp522
(dp523
g12
g29
sg14
S'Ubuntu Mono'
p524
sg16
I400
sg17
g13
sg18
g13
sg19
S'/usr/share/fonts/truetype/ubuntu-font-family/UbuntuMono-RI.ttf'
p525
sg21
g22
sbag7
(g8
g9
NtRp526
(dp527
g12
g13
sg14
S'Liberation Serif'
p528
sg16
I400
sg17
g13
sg18
g13
sg19
S'/usr/share/fonts/truetype/liberation/LiberationSerif-Regular.ttf'
p529
sg21
g22
sbag7
(g8
g9
NtRp530
(dp531
g12
g126
sg14
S'DejaVu Sans Mono'
p532
sg16
I700
sg17
g13
sg18
g13
sg19
S'/usr/share/fonts/truetype/ttf-dejavu/DejaVuSansMono-BoldOblique.ttf'
p533
sg21
g22
sbag7
(g8
g9
NtRp534
(dp535
g12
g13
sg14
S'Purisa'
p536
sg16
I700
sg17
g13
sg18
g13
sg19
S'/usr/share/fonts/truetype/tlwg/Purisa-Bold.ttf'
p537
sg21
g22
sbag7
(g8
g9
NtRp538
(dp539
g12
g13
sg14
S'FreeMono'
p540
sg16
I700
sg17
g13
sg18
g13
sg19
S'/usr/share/fonts/truetype/freefont/FreeMonoBold.ttf'
p541
sg21
g22
sbag7
(g8
g9
NtRp542
(dp543
g12
g13
sg14
S'DejaVu Sans'
p544
sg16
I700
sg17
g13
sg18
g13
sg19
S'/usr/share/fonts/truetype/ttf-dejavu/DejaVuSans-Bold.ttf'
p545
sg21
g22
sbag7
(g8
g9
NtRp546
(dp547
g12
g13
sg14
S'Tlwg Typist'
p548
sg16
I700
sg17
g13
sg18
g13
sg19
S'/usr/share/fonts/truetype/tlwg/TlwgTypist-Bold.ttf'
p549
sg21
g22
sbag7
(g8
g9
NtRp550
(dp551
g12
g13
sg14
S'DejaVu Sans'
p552
sg16
I200
sg17
g13
sg18
g13
sg19
S'/usr/share/fonts/truetype/ttf-dejavu/DejaVuSans-ExtraLight.ttf'
p553
sg21
g22
sbag7
(g8
g9
NtRp554
(dp555
g12
g13
sg14
S'Georgia'
p556
sg16
I400
sg17
g13
sg18
g13
sg19
S'/usr/share/fonts/truetype/msttcorefonts/georgia.ttf'
p557
sg21
g22
sbag7
(g8
g9
NtRp558
(dp559
g12
g13
sg14
S'KacstBook'
p560
sg16
I400
sg17
g13
sg18
g13
sg19
S'/usr/share/fonts/truetype/kacst/KacstBook.ttf'
p561
sg21
g22
sbag7
(g8
g9
NtRp562
(dp563
g12
g13
sg14
S'KacstFarsi'
p564
sg16
I400
sg17
g13
sg18
g13
sg19
S'/usr/share/fonts/truetype/kacst/KacstFarsi.ttf'
p565
sg21
g22
sbag7
(g8
g9
NtRp566
(dp567
g12
g29
sg14
S'Verdana'
p568
sg16
I700
sg17
g13
sg18
g13
sg19
S'/usr/share/fonts/truetype/msttcorefonts/verdanaz.ttf'
p569
sg21
g22
sbag7
(g8
g9
NtRp570
(dp571
g12
g13
sg14
S'Purisa'
p572
sg16
I400
sg17
g13
sg18
g13
sg19
S'/usr/share/fonts/truetype/tlwg/Purisa.ttf'
p573
sg21
g22
sbag7
(g8
g9
NtRp574
(dp575
g12
g29
sg14
S'Georgia'
p576
sg16
I400
sg17
g13
sg18
g13
sg19
S'/usr/share/fonts/truetype/msttcorefonts/georgiai.ttf'
p577
sg21
g22
sbag7
(g8
g9
NtRp578
(dp579
g12
g13
sg14
S'Andale Mono'
p580
sg16
I400
sg17
g13
sg18
g13
sg19
S'/usr/share/fonts/truetype/msttcorefonts/Andale_Mono.ttf'
p581
sg21
g22
sbag7
(g8
g9
NtRp582
(dp583
g12
g29
sg14
S'Liberation Sans'
p584
sg16
I700
sg17
g13
sg18
g13
sg19
S'/usr/share/fonts/truetype/liberation/LiberationSans-BoldItalic.ttf'
p585
sg21
g22
sbag7
(g8
g9
NtRp586
(dp587
g12
g29
sg14
S'Georgia'
p588
sg16
I400
sg17
g13
sg18
g13
sg19
S'/usr/share/fonts/truetype/msttcorefonts/Georgia_Italic.ttf'
p589
sg21
g22
sbag7
(g8
g9
NtRp590
(dp591
g12
g29
sg14
S'Ubuntu'
p592
sg16
I200
sg17
g13
sg18
g13
sg19
S'/usr/share/fonts/truetype/ubuntu-font-family/Ubuntu-LI.ttf'
p593
sg21
g22
sbag7
(g8
g9
NtRp594
(dp595
g12
g29
sg14
S'Courier New'
p596
sg16
I400
sg17
g13
sg18
g13
sg19
S'/usr/share/fonts/truetype/msttcorefonts/Courier_New_Italic.ttf'
p597
sg21
g22
sbag7
(g8
g9
NtRp598
(dp599
g12
g126
sg14
S'Umpush'
p600
sg16
I400
sg17
g13
sg18
g13
sg19
S'/usr/share/fonts/truetype/tlwg/Umpush-Oblique.ttf'
p601
sg21
g22
sbag7
(g8
g9
NtRp602
(dp603
g12
g13
sg14
S'NanumGothic'
p604
sg16
I700
sg17
g13
sg18
g13
sg19
S'/usr/share/fonts/truetype/nanum/NanumGothicBold.ttf'
p605
sg21
g22
sbag7
(g8
g9
NtRp606
(dp607
g12
g29
sg14
S'Liberation Mono'
p608
sg16
I700
sg17
g13
sg18
g13
sg19
S'/usr/share/fonts/truetype/liberation/LiberationMono-BoldItalic.ttf'
p609
sg21
g22
sbag7
(g8
g9
NtRp610
(dp611
g12
g126
sg14
S'Purisa'
p612
sg16
I700
sg17
g13
sg18
g13
sg19
S'/usr/share/fonts/truetype/tlwg/Purisa-BoldOblique.ttf'
p613
sg21
g22
sbag7
(g8
g9
NtRp614
(dp615
g12
g126
sg14
S'Loma'
p616
sg16
I700
sg17
g13
sg18
g13
sg19
S'/usr/share/fonts/truetype/tlwg/Loma-BoldOblique.ttf'
p617
sg21
g22
sbag7
(g8
g9
NtRp618
(dp619
g12
g29
sg14
S'Courier New'
p620
sg16
I400
sg17
g13
sg18
g13
sg19
S'/usr/share/fonts/truetype/msttcorefonts/couri.ttf'
p621
sg21
g22
sbag7
(g8
g9
NtRp622
(dp623
g12
g13
sg14
S'TlwgTypewriter'
p624
sg16
I400
sg17
g13
sg18
g13
sg19
S'/usr/share/fonts/truetype/tlwg/TlwgTypewriter.ttf'
p625
sg21
g22
sbag7
(g8
g9
NtRp626
(dp627
g12
g29
sg14
S'Kinnari'
p628
sg16
I700
sg17
g13
sg18
g13
sg19
S'/usr/share/fonts/truetype/tlwg/Kinnari-BoldItalic.ttf'
p629
sg21
g22
sbag7
(g8
g9
NtRp630
(dp631
g12
g13
sg14
S'Ubuntu Mono'
p632
sg16
I700
sg17
g13
sg18
g13
sg19
S'/usr/share/fonts/truetype/ubuntu-font-family/UbuntuMono-B.ttf'
p633
sg21
g22
sbag7
(g8
g9
NtRp634
(dp635
g12
g13
sg14
S'esint10'
p636
sg16
I400
sg17
g13
sg18
g13
sg19
S'/usr/share/fonts/truetype/ttf-lyx/esint10.ttf'
p637
sg21
g22
sbag7
(g8
g9
NtRp638
(dp639
g12
g13
sg14
S'Arial Black'
p640
sg16
I900
sg17
g13
sg18
g13
sg19
S'/usr/share/fonts/truetype/msttcorefonts/ariblk.ttf'
p641
sg21
g22
sbag7
(g8
g9
NtRp642
(dp643
g12
g13
sg14
S'OpenSymbol'
p644
sg16
I400
sg17
g13
sg18
g13
sg19
S'/usr/share/fonts/truetype/openoffice/opens___.ttf'
p645
sg21
g22
sbag7
(g8
g9
NtRp646
(dp647
g12
g29
sg14
S'Verdana'
p648
sg16
I700
sg17
g13
sg18
g13
sg19
S'/usr/share/fonts/truetype/msttcorefonts/Verdana_Bold_Italic.ttf'
p649
sg21
g22
sbag7
(g8
g9
NtRp650
(dp651
g12
g13
sg14
S'gargi'
p652
sg16
I400
sg17
g13
sg18
g13
sg19
S'/usr/share/fonts/truetype/ttf-indic-fonts-core/gargi.ttf'
p653
sg21
g22
sbag7
(g8
g9
NtRp654
(dp655
g12
g29
sg14
S'Norasi'
p656
sg16
I400
sg17
g13
sg18
g13
sg19
S'/usr/share/fonts/truetype/tlwg/Norasi-Italic.ttf'
p657
sg21
g22
sbag7
(g8
g9
NtRp658
(dp659
g12
g29
sg14
S'Ubuntu'
p660
sg16
I700
sg17
g13
sg18
g13
sg19
S'/usr/share/fonts/truetype/ubuntu-font-family/Ubuntu-BI.ttf'
p661
sg21
g22
sbag7
(g8
g9
NtRp662
(dp663
g12
g29
sg14
S'Liberation Sans'
p664
sg16
I400
sg17
g13
sg18
g13
sg19
S'/usr/share/fonts/truetype/liberation/LiberationSans-Italic.ttf'
p665
sg21
g22
sbag7
(g8
g9
NtRp666
(dp667
g12
g13
sg14
S'Khmer OS System'
p668
sg16
I400
sg17
g13
sg18
g13
sg19
S'/usr/share/fonts/truetype/ttf-khmeros-core/KhmerOSsys.ttf'
p669
sg21
g22
sbag7
(g8
g9
NtRp670
(dp671
g12
g13
sg14
S'Comic Sans MS'
p672
sg16
I400
sg17
g13
sg18
g13
sg19
S'/usr/share/fonts/truetype/msttcorefonts/Comic_Sans_MS.ttf'
p673
sg21
g22
sbag7
(g8
g9
NtRp674
(dp675
g12
g126
sg14
S'Tlwg Typist'
p676
sg16
I400
sg17
g13
sg18
g13
sg19
S'/usr/share/fonts/truetype/tlwg/TlwgTypist-Oblique.ttf'
p677
sg21
g22
sbag7
(g8
g9
NtRp678
(dp679
g12
g13
sg14
S'Norasi'
p680
sg16
I400
sg17
g13
sg18
g13
sg19
S'/usr/share/fonts/truetype/tlwg/Norasi.ttf'
p681
sg21
g22
sbag7
(g8
g9
NtRp682
(dp683
g12
g29
sg14
S'DejaVu Serif'
p684
sg16
I400
sg17
g160
sg18
g13
sg19
S'/usr/share/fonts/truetype/ttf-dejavu/DejaVuSerifCondensed-Italic.ttf'
p685
sg21
g22
sbag7
(g8
g9
NtRp686
(dp687
g12
g13
sg14
S'Arial Black'
p688
sg16
I900
sg17
g13
sg18
g13
sg19
S'/usr/share/fonts/truetype/msttcorefonts/Arial_Black.ttf'
p689
sg21
g22
sbag7
(g8
g9
NtRp690
(dp691
g12
g13
sg14
S'Webdings'
p692
sg16
I400
sg17
g13
sg18
g13
sg19
S'/usr/share/fonts/truetype/msttcorefonts/Webdings.ttf'
p693
sg21
g22
sbag7
(g8
g9
NtRp694
(dp695
g12
g13
sg14
S'Mukti Narrow'
p696
sg16
I700
sg17
g13
sg18
g13
sg19
S'/usr/share/fonts/truetype/ttf-indic-fonts-core/MuktiNarrowBold.ttf'
p697
sg21
g22
sbag7
(g8
g9
NtRp698
(dp699
g12
g13
sg14
S'Verdana'
p700
sg16
I700
sg17
g13
sg18
g13
sg19
S'/usr/share/fonts/truetype/msttcorefonts/Verdana_Bold.ttf'
p701
sg21
g22
sbag7
(g8
g9
NtRp702
(dp703
g12
g126
sg14
S'Umpush'
p704
sg16
I700
sg17
g13
sg18
g13
sg19
S'/usr/share/fonts/truetype/tlwg/Umpush-BoldOblique.ttf'
p705
sg21
g22
sbag7
(g8
g9
NtRp706
(dp707
g12
g13
sg14
S'Ubuntu'
p708
sg16
I700
sg17
g13
sg18
g13
sg19
S'/usr/share/fonts/truetype/ubuntu-font-family/Ubuntu-B.ttf'
p709
sg21
g22
sbag7
(g8
g9
NtRp710
(dp711
g12
g126
sg14
S'FreeSans'
p712
sg16
I700
sg17
g13
sg18
g13
sg19
S'/usr/share/fonts/truetype/freefont/FreeSansBoldOblique.ttf'
p713
sg21
g22
sbag7
(g8
g9
NtRp714
(dp715
g12
g13
sg14
S'Tlwg Typo'
p716
sg16
I700
sg17
g13
sg18
g13
sg19
S'/usr/share/fonts/truetype/tlwg/TlwgTypo-Bold.ttf'
p717
sg21
g22
sbag7
(g8
g9
NtRp718
(dp719
g12
g13
sg14
S'Verdana'
p720
sg16
I400
sg17
g13
sg18
g13
sg19
S'/usr/share/fonts/truetype/msttcorefonts/verdana.ttf'
p721
sg21
g22
sbag7
(g8
g9
NtRp722
(dp723
g12
g29
sg14
S'Ubuntu'
p724
sg16
I400
sg17
g13
sg18
g13
sg19
S'/usr/share/fonts/truetype/ubuntu-font-family/Ubuntu-RI.ttf'
p725
sg21
g22
sbag7
(g8
g9
NtRp726
(dp727
g12
g126
sg14
S'Waree'
p728
sg16
I400
sg17
g13
sg18
g13
sg19
S'/usr/share/fonts/truetype/tlwg/Waree-Oblique.ttf'
p729
sg21
g22
sbag7
(g8
g9
NtRp730
(dp731
g12
g29
sg14
S'Liberation Serif'
p732
sg16
I400
sg17
g13
sg18
g13
sg19
S'/usr/share/fonts/truetype/liberation/LiberationSerif-Italic.ttf'
p733
sg21
g22
sbag7
(g8
g9
NtRp734
(dp735
g12
g13
sg14
S'TlwgTypewriter'
p736
sg16
I700
sg17
g13
sg18
g13
sg19
S'/usr/share/fonts/truetype/tlwg/TlwgTypewriter-Bold.ttf'
p737
sg21
g22
sbag7
(g8
g9
NtRp738
(dp739
g12
g126
sg14
S'Waree'
p740
sg16
I700
sg17
g13
sg18
g13
sg19
S'/usr/share/fonts/truetype/tlwg/Waree-BoldOblique.ttf'
p741
sg21
g22
sbag7
(g8
g9
NtRp742
(dp743
g12
g13
sg14
S'FreeSans'
p744
sg16
I400
sg17
g13
sg18
g13
sg19
S'/usr/share/fonts/truetype/freefont/FreeSans.ttf'
p745
sg21
g22
sbag7
(g8
g9
NtRp746
(dp747
g12
g13
sg14
S'DejaVu Sans Mono'
p748
sg16
I700
sg17
g13
sg18
g13
sg19
S'/usr/share/fonts/truetype/ttf-dejavu/DejaVuSansMono-Bold.ttf'
p749
sg21
g22
sbag7
(g8
g9
NtRp750
(dp751
g12
g29
sg14
S'Arial'
p752
sg16
I400
sg17
g13
sg18
g13
sg19
S'/usr/share/fonts/truetype/msttcorefonts/ariali.ttf'
p753
sg21
g22
sbag7
(g8
g9
NtRp754
(dp755
g12
g29
sg14
S'FreeSerif'
p756
sg16
I700
sg17
g13
sg18
g13
sg19
S'/usr/share/fonts/truetype/freefont/FreeSerifBoldItalic.ttf'
p757
sg21
g22
sbag7
(g8
g9
NtRp758
(dp759
g12
g29
sg14
S'Trebuchet MS'
p760
sg16
I700
sg17
g13
sg18
g13
sg19
S'/usr/share/fonts/truetype/msttcorefonts/trebucbi.ttf'
p761
sg21
g22
sbag7
(g8
g9
NtRp762
(dp763
g12
g13
sg14
S'KacstArt'
p764
sg16
I400
sg17
g13
sg18
g13
sg19
S'/usr/share/fonts/truetype/kacst/KacstArt.ttf'
p765
sg21
g22
sbag7
(g8
g9
NtRp766
(dp767
g12
g13
sg14
S'Waree'
p768
sg16
I400
sg17
g13
sg18
g13
sg19
S'/usr/share/fonts/truetype/tlwg/Waree.ttf'
p769
sg21
g22
sbag7
(g8
g9
NtRp770
(dp771
g12
g13
sg14
S'Vemana2000'
p772
sg16
I400
sg17
g13
sg18
g13
sg19
S'/usr/share/fonts/truetype/ttf-indic-fonts-core/Vemana.ttf'
p773
sg21
g22
sbag7
(g8
g9
NtRp774
(dp775
g12
g13
sg14
S'Umpush'
p776
sg16
I200
sg17
g13
sg18
g13
sg19
S'/usr/share/fonts/truetype/tlwg/Umpush-Light.ttf'
p777
sg21
g22
sbag7
(g8
g9
NtRp778
(dp779
g12
g29
sg14
S'Times New Roman'
p780
sg16
I500
sg17
g13
sg18
g13
sg19
S'/usr/share/fonts/truetype/msttcorefonts/timesi.ttf'
p781
sg21
g22
sbag7
(g8
g9
NtRp782
(dp783
g12
g29
sg14
S'Times New Roman'
p784
sg16
I500
sg17
g13
sg18
g13
sg19
S'/usr/share/fonts/truetype/msttcorefonts/Times_New_Roman_Italic.ttf'
p785
sg21
g22
sbag7
(g8
g9
NtRp786
(dp787
g12
g29
sg14
S'Arial'
p788
sg16
I400
sg17
g13
sg18
g13
sg19
S'/usr/share/fonts/truetype/msttcorefonts/Arial_Italic.ttf'
p789
sg21
g22
sbag7
(g8
g9
NtRp790
(dp791
g12
g13
sg14
S'Lohit Tamil'
p792
sg16
I400
sg17
g13
sg18
g13
sg19
S'/usr/share/fonts/truetype/ttf-indic-fonts-core/lohit_ta.ttf'
p793
sg21
g22
sbag7
(g8
g9
NtRp794
(dp795
g12
g13
sg14
S'Liberation Sans'
p796
sg16
I400
sg17
g13
sg18
g13
sg19
S'/usr/share/fonts/truetype/liberation/LiberationSans-Regular.ttf'
p797
sg21
g22
sbag7
(g8
g9
NtRp798
(dp799
g12
g13
sg14
S'Ubuntu Condensed'
p800
sg16
I400
sg17
g160
sg18
g13
sg19
S'/usr/share/fonts/truetype/ubuntu-font-family/Ubuntu-C.ttf'
p801
sg21
g22
sbag7
(g8
g9
NtRp802
(dp803
g12
g13
sg14
S'Kinnari'
p804
sg16
I400
sg17
g13
sg18
g13
sg19
S'/usr/share/fonts/truetype/tlwg/Kinnari.ttf'
p805
sg21
g22
sbag7
(g8
g9
NtRp806
(dp807
g12
g29
sg14
S'Georgia'
p808
sg16
I700
sg17
g13
sg18
g13
sg19
S'/usr/share/fonts/truetype/msttcorefonts/georgiaz.ttf'
p809
sg21
g22
sbag7
(g8
g9
NtRp810
(dp811
g12
g29
sg14
S'Courier New'
p812
sg16
I700
sg17
g13
sg18
g13
sg19
S'/usr/share/fonts/truetype/msttcorefonts/Courier_New_Bold_Italic.ttf'
p813
sg21
g22
sbag7
(g8
g9
NtRp814
(dp815
g12
g29
sg14
S'Ubuntu Mono'
p816
sg16
I700
sg17
g13
sg18
g13
sg19
S'/usr/share/fonts/truetype/ubuntu-font-family/UbuntuMono-BI.ttf'
p817
sg21
g22
sbag7
(g8
g9
NtRp818
(dp819
g12
g13
sg14
S'Arial'
p820
sg16
I700
sg17
g13
sg18
g13
sg19
S'/usr/share/fonts/truetype/msttcorefonts/arialbd.ttf'
p821
sg21
g22
sbag7
(g8
g9
NtRp822
(dp823
g12
g13
sg14
S'Times New Roman'
p824
sg16
I700
sg17
g13
sg18
g13
sg19
S'/usr/share/fonts/truetype/msttcorefonts/timesbd.ttf'
p825
sg21
g22
sbag7
(g8
g9
NtRp826
(dp827
g12
g13
sg14
S'Rachana'
p828
sg16
I400
sg17
g13
sg18
g13
sg19
S'/usr/share/fonts/truetype/ttf-indic-fonts-core/Rachana_04.ttf'
p829
sg21
g22
sbag7
(g8
g9
NtRp830
(dp831
g12
g13
sg14
S'Trebuchet MS'
p832
sg16
I700
sg17
g13
sg18
g13
sg19
S'/usr/share/fonts/truetype/msttcorefonts/Trebuchet_MS_Bold.ttf'
p833
sg21
g22
sbag7
(g8
g9
NtRp834
(dp835
g12
g126
sg14
S'TlwgMono'
p836
sg16
I700
sg17
g13
sg18
g13
sg19
S'/usr/share/fonts/truetype/tlwg/TlwgMono-BoldOblique.ttf'
p837
sg21
g22
sbag7
(g8
g9
NtRp838
(dp839
g12
g29
sg14
S'DejaVu Serif'
p840
sg16
I400
sg17
g13
sg18
g13
sg19
S'/usr/share/fonts/truetype/ttf-dejavu/DejaVuSerif-Italic.ttf'
p841
sg21
g22
sbag7
(g8
g9
NtRp842
(dp843
g12
g13
sg14
S'Kedage'
p844
sg16
I400
sg17
g13
sg18
g13
sg19
S'/usr/share/fonts/truetype/ttf-indic-fonts-core/Kedage-n.ttf'
p845
sg21
g22
sbag7
(g8
g9
NtRp846
(dp847
g12
g13
sg14
S'Kinnari'
p848
sg16
I700
sg17
g13
sg18
g13
sg19
S'/usr/share/fonts/truetype/tlwg/Kinnari-Bold.ttf'
p849
sg21
g22
sbag7
(g8
g9
NtRp850
(dp851
g12
g126
sg14
S'FreeMono'
p852
sg16
I400
sg17
g13
sg18
g13
sg19
S'/usr/share/fonts/truetype/freefont/FreeMonoOblique.ttf'
p853
sg21
g22
sbag7
(g8
g9
NtRp854
(dp855
g12
g13
sg14
S'TlwgMono'
p856
sg16
I400
sg17
g13
sg18
g13
sg19
S'/usr/share/fonts/truetype/tlwg/TlwgMono.ttf'
p857
sg21
g22
sbag7
(g8
g9
NtRp858
(dp859
g12
g126
sg14
S'TlwgTypewriter'
p860
sg16
I700
sg17
g13
sg18
g13
sg19
S'/usr/share/fonts/truetype/tlwg/TlwgTypewriter-BoldOblique.ttf'
p861
sg21
g22
sbag7
(g8
g9
NtRp862
(dp863
g12
g126
sg14
S'Kinnari'
p864
sg16
I400
sg17
g13
sg18
g13
sg19
S'/usr/share/fonts/truetype/tlwg/Kinnari-Oblique.ttf'
p865
sg21
g22
sbag7
(g8
g9
NtRp866
(dp867
g12
g13
sg14
S'KacstTitleL'
p868
sg16
I400
sg17
g13
sg18
g13
sg19
S'/usr/share/fonts/truetype/kacst/KacstTitleL.ttf'
p869
sg21
g22
sbag7
(g8
g9
NtRp870
(dp871
g12
g126
sg14
S'DejaVu Sans Mono'
p872
sg16
I400
sg17
g13
sg18
g13
sg19
S'/usr/share/fonts/truetype/ttf-dejavu/DejaVuSansMono-Oblique.ttf'
p873
sg21
g22
sbag7
(g8
g9
NtRp874
(dp875
g12
g13
sg14
S'Liberation Sans Narrow'
p876
sg16
I400
sg17
g160
sg18
g13
sg19
S'/usr/share/fonts/truetype/liberation/LiberationSansNarrow-Regular.ttf'
p877
sg21
g22
sbag7
(g8
g9
NtRp878
(dp879
g12
g29
sg14
S'Trebuchet MS'
p880
sg16
I400
sg17
g13
sg18
g13
sg19
S'/usr/share/fonts/truetype/msttcorefonts/trebucit.ttf'
p881
sg21
g22
sbag7
(g8
g9
NtRp882
(dp883
g12
g29
sg14
S'Times New Roman'
p884
sg16
I700
sg17
g13
sg18
g13
sg19
S'/usr/share/fonts/truetype/msttcorefonts/timesbi.ttf'
p885
sg21
g22
sbag7
(g8
g9
NtRp886
(dp887
g12
g126
sg14
S'Purisa'
p888
sg16
I400
sg17
g13
sg18
g13
sg19
S'/usr/share/fonts/truetype/tlwg/Purisa-Oblique.ttf'
p889
sg21
g22
sbag7
(g8
g9
NtRp890
(dp891
g12
g29
sg14
S'Kinnari'
p892
sg16
I400
sg17
g13
sg18
g13
sg19
S'/usr/share/fonts/truetype/tlwg/Kinnari-Italic.ttf'
p893
sg21
g22
sbag7
(g8
g9
NtRp894
(dp895
g12
g126
sg14
S'Sawasdee'
p896
sg16
I700
sg17
g13
sg18
g13
sg19
S'/usr/share/fonts/truetype/tlwg/Sawasdee-BoldOblique.ttf'
p897
sg21
g22
sbag7
(g8
g9
NtRp898
(dp899
g12
g13
sg14
S'Sawasdee'
p900
sg16
I700
sg17
g13
sg18
g13
sg19
S'/usr/share/fonts/truetype/tlwg/Sawasdee-Bold.ttf'
p901
sg21
g22
sbag7
(g8
g9
NtRp902
(dp903
g12
g29
sg14
S'Arial'
p904
sg16
I700
sg17
g13
sg18
g13
sg19
S'/usr/share/fonts/truetype/msttcorefonts/Arial_Bold_Italic.ttf'
p905
sg21
g22
sbag7
(g8
g9
NtRp906
(dp907
g12
g13
sg14
S'DejaVu Serif'
p908
sg16
I400
sg17
g160
sg18
g13
sg19
S'/usr/share/fonts/truetype/ttf-dejavu/DejaVuSerifCondensed.ttf'
p909
sg21
g22
sbag7
(g8
g9
NtRp910
(dp911
g12
g13
sg14
S'Saab'
p912
sg16
I400
sg17
g13
sg18
g13
sg19
S'/usr/share/fonts/truetype/ttf-punjabi-fonts/Saab.ttf'
p913
sg21
g22
sbag7
(g8
g9
NtRp914
(dp915
g12
g13
sg14
S'KacstOffice'
p916
sg16
I400
sg17
g13
sg18
g13
sg19
S'/usr/share/fonts/truetype/kacst/KacstOffice.ttf'
p917
sg21
g22
sbag7
(g8
g9
NtRp918
(dp919
g12
g13
sg14
S'Arial'
p920
sg16
I400
sg17
g13
sg18
g13
sg19
S'/usr/share/fonts/truetype/msttcorefonts/arial.ttf'
p921
sg21
g22
sbag7
(g8
g9
NtRp922
(dp923
g12
g13
sg14
S'Lohit Gujarati'
p924
sg16
I400
sg17
g13
sg18
g13
sg19
S'/usr/share/fonts/truetype/ttf-indic-fonts-core/lohit_gu.ttf'
p925
sg21
g22
sbag7
(g8
g9
NtRp926
(dp927
g12
g126
sg14
S'Sawasdee'
p928
sg16
I400
sg17
g13
sg18
g13
sg19
S'/usr/share/fonts/truetype/tlwg/Sawasdee-Oblique.ttf'
p929
sg21
g22
sbag7
(g8
g9
NtRp930
(dp931
g12
g13
sg14
S'Impact'
p932
sg16
I400
sg17
g13
sg18
g13
sg19
S'/usr/share/fonts/truetype/msttcorefonts/impact.ttf'
p933
sg21
g22
sbag7
(g8
g9
NtRp934
(dp935
g12
g13
sg14
S'NanumMyeongjo'
p936
sg16
I400
sg17
g13
sg18
g13
sg19
S'/usr/share/fonts/truetype/nanum/NanumMyeongjo.ttf'
p937
sg21
g22
sbag7
(g8
g9
NtRp938
(dp939
g12
g13
sg14
S'Khmer OS'
p940
sg16
I400
sg17
g13
sg18
g13
sg19
S'/usr/share/fonts/truetype/ttf-khmeros-core/KhmerOS.ttf'
p941
sg21
g22
sbag7
(g8
g9
NtRp942
(dp943
g12
g13
sg14
S'Verdana'
p944
sg16
I700
sg17
g13
sg18
g13
sg19
S'/usr/share/fonts/truetype/msttcorefonts/verdanab.ttf'
p945
sg21
g22
sbag7
(g8
g9
NtRp946
(dp947
g12
g13
sg14
S'Loma'
p948
sg16
I400
sg17
g13
sg18
g13
sg19
S'/usr/share/fonts/truetype/tlwg/Loma.ttf'
p949
sg21
g22
sbag7
(g8
g9
NtRp950
(dp951
g12
g126
sg14
S'Garuda'
p952
sg16
I400
sg17
g13
sg18
g13
sg19
S'/usr/share/fonts/truetype/tlwg/Garuda-Oblique.ttf'
p953
sg21
g22
sbag7
(g8
g9
NtRp954
(dp955
g12
g13
sg14
S'Loma'
p956
sg16
I700
sg17
g13
sg18
g13
sg19
S'/usr/share/fonts/truetype/tlwg/Loma-Bold.ttf'
p957
sg21
g22
sbag7
(g8
g9
NtRp958
(dp959
g12
g126
sg14
S'Garuda'
p960
sg16
I700
sg17
g13
sg18
g13
sg19
S'/usr/share/fonts/truetype/tlwg/Garuda-BoldOblique.ttf'
p961
sg21
g22
sbag7
(g8
g9
NtRp962
(dp963
g12
g13
sg14
S'KacstLetter'
p964
sg16
I400
sg17
g13
sg18
g13
sg19
S'/usr/share/fonts/truetype/kacst/KacstLetter.ttf'
p965
sg21
g22
sbag7
(g8
g9
NtRp966
(dp967
g12
g13
sg14
S'KacstPen'
p968
sg16
I400
sg17
g13
sg18
g13
sg19
S'/usr/share/fonts/truetype/kacst/KacstPen.ttf'
p969
sg21
g22
sbag7
(g8
g9
NtRp970
(dp971
g12
g126
sg14
S'Tlwg Typo'
p972
sg16
I700
sg17
g13
sg18
g13
sg19
S'/usr/share/fonts/truetype/tlwg/TlwgTypo-BoldOblique.ttf'
p973
sg21
g22
sbag7
(g8
g9
NtRp974
(dp975
g12
g13
sg14
S'msam10'
p976
sg16
I400
sg17
g13
sg18
g13
sg19
S'/usr/share/fonts/truetype/ttf-lyx/msam10.ttf'
p977
sg21
g22
sbag7
(g8
g9
NtRp978
(dp979
g12
g13
sg14
S'Trebuchet MS'
p980
sg16
I700
sg17
g13
sg18
g13
sg19
S'/usr/share/fonts/truetype/msttcorefonts/trebucbd.ttf'
p981
sg21
g22
sbag7
(g8
g9
NtRp982
(dp983
g12
g13
sg14
S'Untitled1'
p984
sg16
I400
sg17
g13
sg18
g13
sg19
S'/usr/share/fonts/truetype/freefont/Untitled1.ttf'
p985
sg21
g22
sbag7
(g8
g9
NtRp986
(dp987
g12
g29
sg14
S'Trebuchet MS'
p988
sg16
I700
sg17
g13
sg18
g13
sg19
S'/usr/share/fonts/truetype/msttcorefonts/Trebuchet_MS_Bold_Italic.ttf'
p989
sg21
g22
sbag7
(g8
g9
NtRp990
(dp991
g12
g13
sg14
S'Comic Sans MS'
p992
sg16
I400
sg17
g13
sg18
g13
sg19
S'/usr/share/fonts/truetype/msttcorefonts/comic.ttf'
p993
sg21
g22
sbag7
(g8
g9
NtRp994
(dp995
g12
g13
sg14
S'Mukti Narrow'
p996
sg16
I400
sg17
g13
sg18
g13
sg19
S'/usr/share/fonts/truetype/ttf-indic-fonts-core/MuktiNarrow.ttf'
p997
sg21
g22
sbag7
(g8
g9
NtRp998
(dp999
g12
g29
sg14
S'FreeSerif'
p1000
sg16
I400
sg17
g13
sg18
g13
sg19
S'/usr/share/fonts/truetype/freefont/FreeSerifItalic.ttf'
p1001
sg21
g22
sbag7
(g8
g9
NtRp1002
(dp1003
g12
g13
sg14
S'Ubuntu'
p1004
sg16
I200
sg17
g13
sg18
g13
sg19
S'/usr/share/fonts/truetype/ubuntu-font-family/Ubuntu-L.ttf'
p1005
sg21
g22
sbag7
(g8
g9
NtRp1006
(dp1007
g12
g13
sg14
S'Courier New'
p1008
sg16
I700
sg17
g13
sg18
g13
sg19
S'/usr/share/fonts/truetype/msttcorefonts/courbd.ttf'
p1009
sg21
g22
sbag7
(g8
g9
NtRp1010
(dp1011
g12
g13
sg14
S'KacstDecorative'
p1012
sg16
I400
sg17
g13
sg18
g13
sg19
S'/usr/share/fonts/truetype/kacst/KacstDecorative.ttf'
p1013
sg21
g22
sbag7
(g8
g9
NtRp1014
(dp1015
g12
g126
sg14
S'TlwgTypewriter'
p1016
sg16
I400
sg17
g13
sg18
g13
sg19
S'/usr/share/fonts/truetype/tlwg/TlwgTypewriter-Oblique.ttf'
p1017
sg21
g22
sbag7
(g8
g9
NtRp1018
(dp1019
g12
g29
sg14
S'Liberation Sans Narrow'
p1020
sg16
I400
sg17
g160
sg18
g13
sg19
S'/usr/share/fonts/truetype/liberation/LiberationSansNarrow-Italic.ttf'
p1021
sg21
g22
sbag7
(g8
g9
NtRp1022
(dp1023
g12
g13
sg14
S'Times New Roman'
p1024
sg16
I700
sg17
g13
sg18
g13
sg19
S'/usr/share/fonts/truetype/msttcorefonts/Times_New_Roman_Bold.ttf'
p1025
sg21
g22
sbasS'defaultFamily'
p1026
(dp1027
S'afm'
p1028
S'Helvetica'
p1029
sS'ttf'
p1030
S'Bitstream Vera Sans'
p1031
ssS'ttffiles'
p1032
(lp1033
S'/usr/share/matplotlib/mpl-data/fonts/ttf/cmb10.ttf'
p1034
aS'/usr/share/matplotlib/mpl-data/fonts/ttf/cmex10.ttf'
p1035
aS'/usr/share/matplotlib/mpl-data/fonts/ttf/STIXNonUniIta.ttf'
p1036
aS'/usr/share/matplotlib/mpl-data/fonts/ttf/STIXSizOneSymReg.ttf'
p1037
aS'/usr/share/matplotlib/mpl-data/fonts/ttf/STIXSizThreeSymReg.ttf'
p1038
aS'/usr/share/matplotlib/mpl-data/fonts/ttf/STIXSizTwoSymBol.ttf'
p1039
aS'/usr/share/matplotlib/mpl-data/fonts/ttf/cmtt10.ttf'
p1040
aS'/usr/share/matplotlib/mpl-data/fonts/ttf/STIXGeneral.ttf'
p1041
aS'/usr/share/matplotlib/mpl-data/fonts/ttf/STIXSizThreeSymBol.ttf'
p1042
aS'/usr/share/matplotlib/mpl-data/fonts/ttf/STIXNonUni.ttf'
p1043
aS'/usr/share/matplotlib/mpl-data/fonts/ttf/STIXSizFiveSymReg.ttf'
p1044
aS'/usr/share/matplotlib/mpl-data/fonts/ttf/STIXSizOneSymBol.ttf'
p1045
aS'/usr/share/matplotlib/mpl-data/fonts/ttf/STIXGeneralBol.ttf'
p1046
aS'/usr/share/matplotlib/mpl-data/fonts/ttf/cmr10.ttf'
p1047
aS'/usr/share/matplotlib/mpl-data/fonts/ttf/STIXSizTwoSymReg.ttf'
p1048
aS'/usr/share/matplotlib/mpl-data/fonts/ttf/STIXSizFourSymReg.ttf'
p1049
aS'/usr/share/matplotlib/mpl-data/fonts/ttf/cmsy10.ttf'
p1050
aS'/usr/share/matplotlib/mpl-data/fonts/ttf/STIXNonUniBolIta.ttf'
p1051
aS'/usr/share/matplotlib/mpl-data/fonts/ttf/cmss10.ttf'
p1052
aS'/usr/share/matplotlib/mpl-data/fonts/ttf/STIXSizFourSymBol.ttf'
p1053
aS'/usr/share/matplotlib/mpl-data/fonts/ttf/STIXGeneralItalic.ttf'
p1054
aS'/usr/share/matplotlib/mpl-data/fonts/ttf/cmmi10.ttf'
p1055
aS'/usr/share/matplotlib/mpl-data/fonts/ttf/STIXNonUniBol.ttf'
p1056
aS'/usr/share/matplotlib/mpl-data/fonts/ttf/STIXGeneralBolIta.ttf'
p1057
aS'/usr/share/fonts/truetype/msttcorefonts/webdings.ttf'
p1058
aS'/usr/share/fonts/truetype/kacst/KacstTitle.ttf'
p1059
aS'/usr/share/fonts/truetype/tlwg/TlwgTypo-Oblique.ttf'
p1060
aS'/usr/share/fonts/truetype/ttf-indic-fonts-core/Malige-b.ttf'
p1061
aS'/usr/share/fonts/truetype/tlwg/Umpush.ttf'
p1062
aS'/usr/share/fonts/truetype/tlwg/Garuda-Bold.ttf'
p1063
aS'/usr/share/fonts/truetype/msttcorefonts/Times_New_Roman.ttf'
p1064
aS'/usr/share/fonts/truetype/msttcorefonts/verdanai.ttf'
p1065
aS'/usr/share/fonts/truetype/freefont/FreeSerif.ttf'
p1066
aS'/usr/share/fonts/truetype/ttf-lyx/rsfs10.ttf'
p1067
aS'/usr/share/fonts/truetype/ttf-dejavu/DejaVuSansCondensed.ttf'
p1068
aS'/usr/share/fonts/truetype/tlwg/Loma-Oblique.ttf'
p1069
aS'/usr/share/fonts/truetype/tlwg/Norasi-Oblique.ttf'
p1070
aS'/usr/share/fonts/truetype/tlwg/Kinnari-BoldOblique.ttf'
p1071
aS'/usr/share/fonts/truetype/msttcorefonts/Arial_Bold.ttf'
p1072
aS'/usr/share/fonts/truetype/kacst/KacstPoster.ttf'
p1073
aS'/usr/share/fonts/truetype/ttf-dejavu/DejaVuSansMono.ttf'
p1074
aS'/usr/share/fonts/truetype/ttf-punjabi-fonts/lohit_pa.ttf'
p1075
aS'/usr/share/fonts/truetype/ttf-indic-fonts-core/Meera_04.ttf'
p1076
aS'/usr/share/fonts/truetype/fonts-japanese-gothic.ttf'
p1077
aS'/usr/share/fonts/truetype/liberation/LiberationMono-Bold.ttf'
p1078
aS'/usr/share/fonts/truetype/msttcorefonts/Georgia_Bold.ttf'
p1079
aS'/usr/share/fonts/truetype/tlwg/Umpush-LightOblique.ttf'
p1080
aS'/usr/share/fonts/truetype/freefont/FreeSerifBold.ttf'
p1081
aS'/usr/share/fonts/truetype/freefont/FreeMonoBoldOblique.ttf'
p1082
aS'/usr/share/fonts/truetype/tlwg/TlwgTypo.ttf'
p1083
aS'/usr/share/fonts/truetype/ttf-dejavu/DejaVuSerif-Bold.ttf'
p1084
aS'/usr/share/fonts/truetype/msttcorefonts/georgiab.ttf'
p1085
aS'/usr/share/fonts/truetype/ttf-dejavu/DejaVuSerif.ttf'
p1086
aS'/usr/share/fonts/truetype/liberation/LiberationSansNarrow-Bold.ttf'
p1087
aS'/usr/share/fonts/truetype/freefont/FreeSansOblique.ttf'
p1088
aS'/usr/share/fonts/truetype/msttcorefonts/Comic_Sans_MS_Bold.ttf'
p1089
aS'/usr/share/fonts/truetype/liberation/LiberationMono-Regular.ttf'
p1090
aS'/usr/share/fonts/truetype/liberation/LiberationSans-Bold.ttf'
p1091
aS'/usr/share/fonts/truetype/ttf-indic-fonts-core/lohit_hi.ttf'
p1092
aS'/usr/share/fonts/truetype/msttcorefonts/Courier_New_Bold.ttf'
p1093
aS'/usr/share/fonts/truetype/msttcorefonts/Georgia_Bold_Italic.ttf'
p1094
aS'/usr/share/fonts/truetype/ttf-dejavu/DejaVuSans-Oblique.ttf'
p1095
aS'/usr/share/fonts/truetype/ubuntu-font-family/Ubuntu-R.ttf'
p1096
aS'/usr/share/fonts/truetype/msttcorefonts/Times_New_Roman_Bold_Italic.ttf'
p1097
aS'/usr/share/fonts/truetype/ttf-lyx/eufm10.ttf'
p1098
aS'/usr/share/fonts/truetype/tlwg/Garuda.ttf'
p1099
aS'/usr/share/fonts/truetype/ttf-dejavu/DejaVuSans-BoldOblique.ttf'
p1100
aS'/usr/share/fonts/truetype/tlwg/TlwgTypist.ttf'
p1101
aS'/usr/share/fonts/truetype/nanum/NanumGothic.ttf'
p1102
aS'/usr/share/fonts/truetype/ttf-lyx/wasy10.ttf'
p1103
aS'/usr/share/fonts/truetype/msttcorefonts/Impact.ttf'
p1104
aS'/usr/share/fonts/truetype/kacst/mry_KacstQurn.ttf'
p1105
aS'/usr/share/fonts/truetype/msttcorefonts/Georgia.ttf'
p1106
aS'/usr/share/fonts/truetype/tlwg/TlwgMono-Oblique.ttf'
p1107
aS'/usr/share/fonts/truetype/ttf-lyx/msbm10.ttf'
p1108
aS'/usr/share/fonts/truetype/tlwg/TlwgMono-Bold.ttf'
p1109
aS'/usr/share/fonts/truetype/liberation/LiberationMono-Italic.ttf'
p1110
aS'/usr/share/fonts/truetype/liberation/LiberationSerif-BoldItalic.ttf'
p1111
aS'/usr/share/fonts/truetype/msttcorefonts/andalemo.ttf'
p1112
aS'/usr/share/fonts/truetype/ttf-dejavu/DejaVuSans.ttf'
p1113
aS'/usr/share/fonts/truetype/msttcorefonts/arialbi.ttf'
p1114
aS'/usr/share/fonts/truetype/liberation/LiberationSerif-Bold.ttf'
p1115
aS'/usr/share/fonts/truetype/kacst-one/KacstOne-Bold.ttf'
p1116
aS'/usr/share/fonts/truetype/msttcorefonts/Verdana.ttf'
p1117
aS'/usr/share/fonts/truetype/nanum/NanumMyeongjoBold.ttf'
p1118
aS'/usr/share/fonts/truetype/tlwg/Waree-Bold.ttf'
p1119
aS'/usr/share/fonts/truetype/ttf-indic-fonts-core/Pothana2000.ttf'
p1120
aS'/usr/share/fonts/truetype/lao/Phetsarath_OT.ttf'
p1121
aS'/usr/share/fonts/truetype/ttf-dejavu/DejaVuSansCondensed-Oblique.ttf'
p1122
aS'/usr/share/fonts/truetype/msttcorefonts/cour.ttf'
p1123
aS'/usr/share/fonts/truetype/ttf-indic-fonts-core/utkal.ttf'
p1124
aS'/usr/share/fonts/truetype/kacst/KacstQurn.ttf'
p1125
aS'/usr/share/fonts/truetype/kacst/KacstDigital.ttf'
p1126
aS'/usr/share/fonts/truetype/takao-gothic/TakaoPGothic.ttf'
p1127
aS'/usr/share/fonts/truetype/ttf-dejavu/DejaVuSerif-BoldItalic.ttf'
p1128
aS'/usr/share/fonts/truetype/kacst/KacstScreen.ttf'
p1129
aS'/usr/share/fonts/truetype/msttcorefonts/Trebuchet_MS.ttf'
p1130
aS'/usr/share/fonts/truetype/ttf-dejavu/DejaVuSansCondensed-BoldOblique.ttf'
p1131
aS'/usr/share/fonts/truetype/ttf-indic-fonts-core/Kedage-b.ttf'
p1132
aS'/usr/share/fonts/truetype/ttf-dejavu/DejaVuSerifCondensed-Bold.ttf'
p1133
aS'/usr/share/fonts/truetype/ubuntu-font-family/UbuntuMono-R.ttf'
p1134
aS'/usr/share/fonts/truetype/msttcorefonts/Trebuchet_MS_Italic.ttf'
p1135
aS'/usr/share/fonts/truetype/msttcorefonts/Courier_New.ttf'
p1136
aS'/usr/share/fonts/truetype/msttcorefonts/comicbd.ttf'
p1137
aS'/usr/share/fonts/truetype/tlwg/Norasi-Bold.ttf'
p1138
aS'/usr/share/fonts/truetype/tlwg/Norasi-BoldItalic.ttf'
p1139
aS'/usr/share/fonts/truetype/msttcorefonts/Arial.ttf'
p1140
aS'/usr/share/fonts/truetype/tlwg/Umpush-Bold.ttf'
p1141
aS'/usr/share/fonts/truetype/msttcorefonts/courbi.ttf'
p1142
aS'/usr/share/fonts/truetype/msttcorefonts/times.ttf'
p1143
aS'/usr/share/fonts/truetype/ttf-dejavu/DejaVuSansCondensed-Bold.ttf'
p1144
aS'/usr/share/fonts/truetype/msttcorefonts/Verdana_Italic.ttf'
p1145
aS'/usr/share/fonts/truetype/freefont/FreeMono.ttf'
p1146
aS'/usr/share/fonts/truetype/ttf-indic-fonts-core/Malige-n.ttf'
p1147
aS'/usr/share/fonts/truetype/kacst/KacstNaskh.ttf'
p1148
aS'/usr/share/fonts/truetype/ttf-indic-fonts-core/Rekha.ttf'
p1149
aS'/usr/share/fonts/truetype/liberation/LiberationSansNarrow-BoldItalic.ttf'
p1150
aS'/usr/share/fonts/truetype/tlwg/Norasi-BoldOblique.ttf'
p1151
aS'/usr/share/fonts/truetype/msttcorefonts/trebuc.ttf'
p1152
aS'/usr/share/fonts/truetype/ttf-dejavu/DejaVuSerifCondensed-BoldItalic.ttf'
p1153
aS'/usr/share/fonts/truetype/tlwg/Sawasdee.ttf'
p1154
aS'/usr/share/fonts/truetype/kacst-one/KacstOne.ttf'
p1155
aS'/usr/share/fonts/truetype/freefont/FreeSansBold.ttf'
p1156
aS'/usr/share/fonts/truetype/tlwg/TlwgTypist-BoldOblique.ttf'
p1157
aS'/usr/share/fonts/truetype/ttf-indic-fonts-core/lohit_bn.ttf'
p1158
aS'/usr/share/fonts/truetype/ubuntu-font-family/UbuntuMono-RI.ttf'
p1159
aS'/usr/share/fonts/truetype/liberation/LiberationSerif-Regular.ttf'
p1160
aS'/usr/share/fonts/truetype/ttf-dejavu/DejaVuSansMono-BoldOblique.ttf'
p1161
aS'/usr/share/fonts/truetype/tlwg/Purisa-Bold.ttf'
p1162
aS'/usr/share/fonts/truetype/freefont/FreeMonoBold.ttf'
p1163
aS'/usr/share/fonts/truetype/ttf-dejavu/DejaVuSans-Bold.ttf'
p1164
aS'/usr/share/fonts/truetype/tlwg/TlwgTypist-Bold.ttf'
p1165
aS'/usr/share/fonts/truetype/ttf-dejavu/DejaVuSans-ExtraLight.ttf'
p1166
aS'/usr/share/fonts/truetype/msttcorefonts/georgia.ttf'
p1167
aS'/usr/share/fonts/truetype/kacst/KacstBook.ttf'
p1168
aS'/usr/share/fonts/truetype/kacst/KacstFarsi.ttf'
p1169
aS'/usr/share/fonts/truetype/msttcorefonts/verdanaz.ttf'
p1170
aS'/usr/share/fonts/truetype/tlwg/Purisa.ttf'
p1171
aS'/usr/share/fonts/truetype/msttcorefonts/georgiai.ttf'
p1172
aS'/usr/share/fonts/truetype/msttcorefonts/Andale_Mono.ttf'
p1173
aS'/usr/share/fonts/truetype/liberation/LiberationSans-BoldItalic.ttf'
p1174
aS'/usr/share/fonts/truetype/msttcorefonts/Georgia_Italic.ttf'
p1175
aS'/usr/share/fonts/truetype/ubuntu-font-family/Ubuntu-LI.ttf'
p1176
aS'/usr/share/fonts/truetype/ttf-lyx/cmmi10.ttf'
p1177
aS'/usr/share/fonts/truetype/msttcorefonts/Courier_New_Italic.ttf'
p1178
aS'/usr/share/fonts/truetype/tlwg/Umpush-Oblique.ttf'
p1179
aS'/usr/share/fonts/truetype/nanum/NanumGothicBold.ttf'
p1180
aS'/usr/share/fonts/truetype/liberation/LiberationMono-BoldItalic.ttf'
p1181
aS'/usr/share/fonts/truetype/tlwg/Purisa-BoldOblique.ttf'
p1182
aS'/usr/share/fonts/truetype/tlwg/Loma-BoldOblique.ttf'
p1183
aS'/usr/share/fonts/truetype/msttcorefonts/couri.ttf'
p1184
aS'/usr/share/fonts/truetype/tlwg/TlwgTypewriter.ttf'
p1185
aS'/usr/share/fonts/truetype/tlwg/Kinnari-BoldItalic.ttf'
p1186
aS'/usr/share/fonts/truetype/ubuntu-font-family/UbuntuMono-B.ttf'
p1187
aS'/usr/share/fonts/truetype/ttf-lyx/esint10.ttf'
p1188
aS'/usr/share/fonts/truetype/msttcorefonts/ariblk.ttf'
p1189
aS'/usr/share/fonts/truetype/openoffice/opens___.ttf'
p1190
aS'/usr/share/fonts/truetype/msttcorefonts/Verdana_Bold_Italic.ttf'
p1191
aS'/usr/share/fonts/truetype/ttf-indic-fonts-core/gargi.ttf'
p1192
aS'/usr/share/fonts/truetype/tlwg/Norasi-Italic.ttf'
p1193
aS'/usr/share/fonts/truetype/ubuntu-font-family/Ubuntu-BI.ttf'
p1194
aS'/usr/share/fonts/truetype/liberation/LiberationSans-Italic.ttf'
p1195
aS'/usr/share/fonts/truetype/ttf-khmeros-core/KhmerOSsys.ttf'
p1196
aS'/usr/share/fonts/truetype/msttcorefonts/Comic_Sans_MS.ttf'
p1197
aS'/usr/share/fonts/truetype/tlwg/TlwgTypist-Oblique.ttf'
p1198
aS'/usr/share/fonts/truetype/tlwg/Norasi.ttf'
p1199
aS'/usr/share/fonts/truetype/ttf-dejavu/DejaVuSerifCondensed-Italic.ttf'
p1200
aS'/usr/share/fonts/truetype/msttcorefonts/Arial_Black.ttf'
p1201
aS'/usr/share/fonts/truetype/msttcorefonts/Webdings.ttf'
p1202
aS'/usr/share/fonts/truetype/ttf-indic-fonts-core/MuktiNarrowBold.ttf'
p1203
aS'/usr/share/fonts/truetype/msttcorefonts/Verdana_Bold.ttf'
p1204
aS'/usr/share/fonts/truetype/tlwg/Umpush-BoldOblique.ttf'
p1205
aS'/usr/share/fonts/truetype/ubuntu-font-family/Ubuntu-B.ttf'
p1206
aS'/usr/share/fonts/truetype/freefont/FreeSansBoldOblique.ttf'
p1207
aS'/usr/share/fonts/truetype/tlwg/TlwgTypo-Bold.ttf'
p1208
aS'/usr/share/fonts/truetype/msttcorefonts/verdana.ttf'
p1209
aS'/usr/share/fonts/truetype/ubuntu-font-family/Ubuntu-RI.ttf'
p1210
aS'/usr/share/fonts/truetype/tlwg/Waree-Oblique.ttf'
p1211
aS'/usr/share/fonts/truetype/liberation/LiberationSerif-Italic.ttf'
p1212
aS'/usr/share/fonts/truetype/tlwg/TlwgTypewriter-Bold.ttf'
p1213
aS'/usr/share/fonts/truetype/tlwg/Waree-BoldOblique.ttf'
p1214
aS'/usr/share/fonts/truetype/freefont/FreeSans.ttf'
p1215
aS'/usr/share/fonts/truetype/ttf-lyx/cmr10.ttf'
p1216
aS'/usr/share/fonts/truetype/ttf-dejavu/DejaVuSansMono-Bold.ttf'
p1217
aS'/usr/share/fonts/truetype/msttcorefonts/ariali.ttf'
p1218
aS'/usr/share/fonts/truetype/freefont/FreeSerifBoldItalic.ttf'
p1219
aS'/usr/share/fonts/truetype/msttcorefonts/trebucbi.ttf'
p1220
aS'/usr/share/fonts/truetype/kacst/KacstArt.ttf'
p1221
aS'/usr/share/fonts/truetype/tlwg/Waree.ttf'
p1222
aS'/usr/share/fonts/truetype/ttf-indic-fonts-core/Vemana.ttf'
p1223
aS'/usr/share/fonts/truetype/tlwg/Umpush-Light.ttf'
p1224
aS'/usr/share/fonts/truetype/msttcorefonts/timesi.ttf'
p1225
aS'/usr/share/fonts/truetype/msttcorefonts/Times_New_Roman_Italic.ttf'
p1226
aS'/usr/share/fonts/truetype/msttcorefonts/Arial_Italic.ttf'
p1227
aS'/usr/share/fonts/truetype/ttf-indic-fonts-core/lohit_ta.ttf'
p1228
aS'/usr/share/fonts/truetype/liberation/LiberationSans-Regular.ttf'
p1229
aS'/usr/share/fonts/truetype/ubuntu-font-family/Ubuntu-C.ttf'
p1230
aS'/usr/share/fonts/truetype/ttf-lyx/cmsy10.ttf'
p1231
aS'/usr/share/fonts/truetype/tlwg/Kinnari.ttf'
p1232
aS'/usr/share/fonts/truetype/msttcorefonts/georgiaz.ttf'
p1233
aS'/usr/share/fonts/truetype/msttcorefonts/Courier_New_Bold_Italic.ttf'
p1234
aS'/usr/share/fonts/truetype/ubuntu-font-family/UbuntuMono-BI.ttf'
p1235
aS'/usr/share/fonts/truetype/msttcorefonts/arialbd.ttf'
p1236
aS'/usr/share/fonts/truetype/msttcorefonts/timesbd.ttf'
p1237
aS'/usr/share/fonts/truetype/ttf-indic-fonts-core/Rachana_04.ttf'
p1238
aS'/usr/share/fonts/truetype/msttcorefonts/Trebuchet_MS_Bold.ttf'
p1239
aS'/usr/share/fonts/truetype/tlwg/TlwgMono-BoldOblique.ttf'
p1240
aS'/usr/share/fonts/truetype/ttf-dejavu/DejaVuSerif-Italic.ttf'
p1241
aS'/usr/share/fonts/truetype/ttf-indic-fonts-core/Kedage-n.ttf'
p1242
aS'/usr/share/fonts/truetype/tlwg/Kinnari-Bold.ttf'
p1243
aS'/usr/share/fonts/truetype/freefont/FreeMonoOblique.ttf'
p1244
aS'/usr/share/fonts/truetype/tlwg/TlwgMono.ttf'
p1245
aS'/usr/share/fonts/truetype/tlwg/TlwgTypewriter-BoldOblique.ttf'
p1246
aS'/usr/share/fonts/truetype/tlwg/Kinnari-Oblique.ttf'
p1247
aS'/usr/share/fonts/truetype/kacst/KacstTitleL.ttf'
p1248
aS'/usr/share/fonts/truetype/ttf-dejavu/DejaVuSansMono-Oblique.ttf'
p1249
aS'/usr/share/fonts/truetype/liberation/LiberationSansNarrow-Regular.ttf'
p1250
aS'/usr/share/fonts/truetype/msttcorefonts/trebucit.ttf'
p1251
aS'/usr/share/fonts/truetype/msttcorefonts/timesbi.ttf'
p1252
aS'/usr/share/fonts/truetype/tlwg/Purisa-Oblique.ttf'
p1253
aS'/usr/share/fonts/truetype/tlwg/Kinnari-Italic.ttf'
p1254
aS'/usr/share/fonts/truetype/tlwg/Sawasdee-BoldOblique.ttf'
p1255
aS'/usr/share/fonts/truetype/tlwg/Sawasdee-Bold.ttf'
p1256
aS'/usr/share/fonts/truetype/msttcorefonts/Arial_Bold_Italic.ttf'
p1257
aS'/usr/share/fonts/truetype/ttf-dejavu/DejaVuSerifCondensed.ttf'
p1258
aS'/usr/share/fonts/truetype/ttf-punjabi-fonts/Saab.ttf'
p1259
aS'/usr/share/fonts/truetype/kacst/KacstOffice.ttf'
p1260
aS'/usr/share/fonts/truetype/msttcorefonts/arial.ttf'
p1261
aS'/usr/share/fonts/truetype/ttf-indic-fonts-core/lohit_gu.ttf'
p1262
aS'/usr/share/fonts/truetype/tlwg/Sawasdee-Oblique.ttf'
p1263
aS'/usr/share/fonts/truetype/msttcorefonts/impact.ttf'
p1264
aS'/usr/share/fonts/truetype/nanum/NanumMyeongjo.ttf'
p1265
aS'/usr/share/fonts/truetype/ttf-khmeros-core/KhmerOS.ttf'
p1266
aS'/usr/share/fonts/truetype/msttcorefonts/verdanab.ttf'
p1267
aS'/usr/share/fonts/truetype/tlwg/Loma.ttf'
p1268
aS'/usr/share/fonts/truetype/tlwg/Garuda-Oblique.ttf'
p1269
aS'/usr/share/fonts/truetype/tlwg/Loma-Bold.ttf'
p1270
aS'/usr/share/fonts/truetype/tlwg/Garuda-BoldOblique.ttf'
p1271
aS'/usr/share/fonts/truetype/kacst/KacstLetter.ttf'
p1272
aS'/usr/share/fonts/truetype/kacst/KacstPen.ttf'
p1273
aS'/usr/share/fonts/truetype/tlwg/TlwgTypo-BoldOblique.ttf'
p1274
aS'/usr/share/fonts/truetype/ttf-lyx/msam10.ttf'
p1275
aS'/usr/share/fonts/truetype/msttcorefonts/trebucbd.ttf'
p1276
aS'/usr/share/fonts/truetype/freefont/Untitled1.ttf'
p1277
aS'/usr/share/fonts/truetype/msttcorefonts/Trebuchet_MS_Bold_Italic.ttf'
p1278
aS'/usr/share/fonts/truetype/msttcorefonts/comic.ttf'
p1279
aS'/usr/share/fonts/truetype/ttf-indic-fonts-core/MuktiNarrow.ttf'
p1280
aS'/usr/share/fonts/truetype/freefont/FreeSerifItalic.ttf'
p1281
aS'/usr/share/fonts/truetype/ubuntu-font-family/Ubuntu-L.ttf'
p1282
aS'/usr/share/fonts/truetype/msttcorefonts/courbd.ttf'
p1283
aS'/usr/share/fonts/truetype/kacst/KacstDecorative.ttf'
p1284
aS'/usr/share/fonts/truetype/tlwg/TlwgTypewriter-Oblique.ttf'
p1285
aS'/usr/share/fonts/truetype/liberation/LiberationSansNarrow-Italic.ttf'
p1286
aS'/usr/share/fonts/truetype/msttcorefonts/Times_New_Roman_Bold.ttf'
p1287
aS'/usr/share/fonts/truetype/ttf-lyx/cmex10.ttf'
p1288
asS'_FontManager__default_weight'
p1289
g13
sS'_version'
p1290
I7
sS'ttf_lookup_cache'
p1291
(dp1292
sS'default_size'
p1293
NsS'defaultFont'
p1294
(dp1295
g1028
Nsg1030
g1034
ssS'afmfiles'
p1296
(lp1297
S'/usr/share/matplotlib/mpl-data/fonts/afm/pzcmi8a.afm'
p1298
aS'/usr/share/matplotlib/mpl-data/fonts/pdfcorefonts/Helvetica.afm'
p1299
aS'/usr/share/matplotlib/mpl-data/fonts/afm/phvl8a.afm'
p1300
aS'/usr/share/matplotlib/mpl-data/fonts/afm/putbi8a.afm'
p1301
aS'/usr/share/matplotlib/mpl-data/fonts/pdfcorefonts/Helvetica-BoldOblique.afm'
p1302
aS'/usr/share/matplotlib/mpl-data/fonts/afm/phvro8an.afm'
p1303
aS'/usr/share/matplotlib/mpl-data/fonts/afm/pbkd8a.afm'
p1304
aS'/usr/share/matplotlib/mpl-data/fonts/afm/pcrbo8a.afm'
p1305
aS'/usr/share/matplotlib/mpl-data/fonts/pdfcorefonts/Helvetica-Bold.afm'
p1306
aS'/usr/share/matplotlib/mpl-data/fonts/pdfcorefonts/Times-BoldItalic.afm'
p1307
aS'/usr/share/matplotlib/mpl-data/fonts/afm/putr8a.afm'
p1308
aS'/usr/share/matplotlib/mpl-data/fonts/afm/pagdo8a.afm'
p1309
aS'/usr/share/matplotlib/mpl-data/fonts/afm/putb8a.afm'
p1310
aS'/usr/share/matplotlib/mpl-data/fonts/afm/pncri8a.afm'
p1311
aS'/usr/share/matplotlib/mpl-data/fonts/afm/pncb8a.afm'
p1312
aS'/usr/share/matplotlib/mpl-data/fonts/pdfcorefonts/Courier-Bold.afm'
p1313
aS'/usr/share/matplotlib/mpl-data/fonts/afm/pcrro8a.afm'
p1314
aS'/usr/share/matplotlib/mpl-data/fonts/afm/cmex10.afm'
p1315
aS'/usr/share/matplotlib/mpl-data/fonts/afm/cmtt10.afm'
p1316
aS'/usr/share/matplotlib/mpl-data/fonts/pdfcorefonts/Symbol.afm'
p1317
aS'/usr/share/matplotlib/mpl-data/fonts/afm/phvr8an.afm'
p1318
aS'/usr/share/matplotlib/mpl-data/fonts/afm/phvro8a.afm'
p1319
aS'/usr/share/matplotlib/mpl-data/fonts/afm/ptmr8a.afm'
p1320
aS'/usr/share/matplotlib/mpl-data/fonts/pdfcorefonts/Helvetica-Oblique.afm'
p1321
aS'/usr/share/matplotlib/mpl-data/fonts/afm/pplbi8a.afm'
p1322
aS'/usr/share/matplotlib/mpl-data/fonts/afm/cmsy10.afm'
p1323
aS'/usr/share/matplotlib/mpl-data/fonts/afm/pagk8a.afm'
p1324
aS'/usr/share/matplotlib/mpl-data/fonts/pdfcorefonts/Courier-BoldOblique.afm'
p1325
aS'/usr/share/matplotlib/mpl-data/fonts/afm/pcrr8a.afm'
p1326
aS'/usr/share/matplotlib/mpl-data/fonts/afm/cmmi10.afm'
p1327
aS'/usr/share/matplotlib/mpl-data/fonts/afm/pagko8a.afm'
p1328
aS'/usr/share/matplotlib/mpl-data/fonts/afm/pbkdi8a.afm'
p1329
aS'/usr/share/matplotlib/mpl-data/fonts/afm/phvbo8a.afm'
p1330
aS'/usr/share/matplotlib/mpl-data/fonts/afm/cmr10.afm'
p1331
aS'/usr/share/matplotlib/mpl-data/fonts/pdfcorefonts/Times-Bold.afm'
p1332
aS'/usr/share/matplotlib/mpl-data/fonts/afm/psyr.afm'
p1333
aS'/usr/share/matplotlib/mpl-data/fonts/afm/phvlo8a.afm'
p1334
aS'/usr/share/matplotlib/mpl-data/fonts/afm/phvb8a.afm'
p1335
aS'/usr/share/matplotlib/mpl-data/fonts/afm/pplb8a.afm'
p1336
aS'/usr/share/matplotlib/mpl-data/fonts/afm/pzdr.afm'
p1337
aS'/usr/share/matplotlib/mpl-data/fonts/afm/ptmri8a.afm'
p1338
aS'/usr/share/matplotlib/mpl-data/fonts/afm/pplr8a.afm'
p1339
aS'/usr/share/matplotlib/mpl-data/fonts/afm/pbkl8a.afm'
p1340
aS'/usr/share/matplotlib/mpl-data/fonts/afm/pncbi8a.afm'
p1341
aS'/usr/share/matplotlib/mpl-data/fonts/pdfcorefonts/ZapfDingbats.afm'
p1342
aS'/usr/share/matplotlib/mpl-data/fonts/afm/ptmb8a.afm'
p1343
aS'/usr/share/matplotlib/mpl-data/fonts/afm/putri8a.afm'
p1344
aS'/usr/share/matplotlib/mpl-data/fonts/afm/pplri8a.afm'
p1345
aS'/usr/share/matplotlib/mpl-data/fonts/afm/ptmbi8a.afm'
p1346
aS'/usr/share/matplotlib/mpl-data/fonts/afm/pbkli8a.afm'
p1347
aS'/usr/share/matplotlib/mpl-data/fonts/pdfcorefonts/Courier-Oblique.afm'
p1348
aS'/usr/share/matplotlib/mpl-data/fonts/afm/pcrb8a.afm'
p1349
aS'/usr/share/matplotlib/mpl-data/fonts/afm/pagd8a.afm'
p1350
aS'/usr/share/matplotlib/mpl-data/fonts/afm/pncr8a.afm'
p1351
aS'/usr/share/matplotlib/mpl-data/fonts/pdfcorefonts/Times-Italic.afm'
p1352
aS'/usr/share/matplotlib/mpl-data/fonts/pdfcorefonts/Times-Roman.afm'
p1353
aS'/usr/share/matplotlib/mpl-data/fonts/afm/phvbo8an.afm'
p1354
aS'/usr/share/matplotlib/mpl-data/fonts/pdfcorefonts/Courier.afm'
p1355
aS'/usr/share/matplotlib/mpl-data/fonts/afm/phvr8a.afm'
p1356
aS'/usr/share/matplotlib/mpl-data/fonts/afm/phvb8an.afm'
p1357
aS'/usr/share/fonts/type1/gsfonts/n021024l.afm'
p1358
aS'/usr/share/fonts/type1/gsfonts/s050000l.afm'
p1359
aS'/usr/share/fonts/type1/gsfonts/n021004l.afm'
p1360
aS'/usr/share/fonts/X11/Type1/lmtto10.afm'
p1361
aS'/usr/share/fonts/X11/Type1/lmtt10.afm'
p1362
aS'/usr/share/fonts/type1/gsfonts/n019024l.afm'
p1363
aS'/usr/share/fonts/type1/gsfonts/p052024l.afm'
p1364
aS'/usr/share/fonts/type1/gsfonts/p052004l.afm'
p1365
aS'/usr/share/fonts/X11/Type1/c0648bt_.afm'
p1366
aS'/usr/share/fonts/X11/Type1/lmbxi10.afm'
p1367
aS'/usr/share/fonts/X11/Type1/lmssqo8.afm'
p1368
aS'/usr/share/fonts/type1/gsfonts/b018012l.afm'
p1369
aS'/usr/share/fonts/type1/gsfonts/n022003l.afm'
p1370
aS'/usr/share/fonts/X11/Type1/c0583bt_.afm'
p1371
aS'/usr/share/fonts/type1/gsfonts/c059013l.afm'
p1372
aS'/usr/share/fonts/type1/gsfonts/a010033l.afm'
p1373
aS'/usr/share/fonts/type1/gsfonts/n019044l.afm'
p1374
aS'/usr/share/fonts/type1/gsfonts/z003034l.afm'
p1375
aS'/usr/share/fonts/X11/Type1/lmtcsc10.afm'
p1376
aS'/usr/share/fonts/type1/gsfonts/n022024l.afm'
p1377
aS'/usr/share/fonts/X11/Type1/lmtcso10.afm'
p1378
aS'/usr/share/fonts/X11/Type1/lmtlc10.afm'
p1379
aS'/usr/share/fonts/type1/gsfonts/c059033l.afm'
p1380
aS'/usr/share/fonts/X11/Type1/Symbol.afm'
p1381
aS'/usr/share/fonts/X11/Type1/lmssbx10.afm'
p1382
aS'/usr/share/fonts/X11/Type1/c0633bt_.afm'
p1383
aS'/usr/share/fonts/X11/Type1/lmvtto10.afm'
p1384
aS'/usr/share/fonts/X11/Type1/lmdunh10.afm'
p1385
aS'/usr/share/fonts/X11/Type1/c0649bt_.afm'
p1386
aS'/usr/share/fonts/X11/Type1/lmbx10.afm'
p1387
aS'/usr/share/fonts/type1/gsfonts/n019064l.afm'
p1388
aS'/usr/share/fonts/type1/gsfonts/n019003l.afm'
p1389
aS'/usr/share/fonts/type1/gsfonts/d050000l.afm'
p1390
aS'/usr/share/fonts/type1/gsfonts/b018035l.afm'
p1391
aS'/usr/share/fonts/X11/Type1/lmvtt10.afm'
p1392
aS'/usr/share/fonts/X11/Type1/lmduno10.afm'
p1393
aS'/usr/share/fonts/type1/gsfonts/a010013l.afm'
p1394
aS'/usr/share/fonts/X11/Type1/c0582bt_.afm'
p1395
aS'/usr/share/fonts/X11/Type1/lmssdo10.afm'
p1396
aS'/usr/share/fonts/type1/gsfonts/n022004l.afm'
p1397
aS'/usr/share/fonts/X11/Type1/lmssq8.afm'
p1398
aS'/usr/share/fonts/X11/Type1/lmss10.afm'
p1399
aS'/usr/share/fonts/type1/mathml/Symbol.afm'
p1400
aS'/usr/share/fonts/X11/Type1/lmtti10.afm'
p1401
aS'/usr/share/fonts/X11/Type1/lmro10.afm'
p1402
aS'/usr/share/fonts/type1/gsfonts/n021003l.afm'
p1403
aS'/usr/share/fonts/type1/gsfonts/n019043l.afm'
p1404
aS'/usr/share/fonts/X11/Type1/lmssdc10.afm'
p1405
aS'/usr/share/fonts/X11/Type1/lmsso10.afm'
p1406
aS'/usr/share/fonts/type1/gsfonts/n019023l.afm'
p1407
aS'/usr/share/fonts/X11/Type1/lmtl10.afm'
p1408
aS'/usr/share/fonts/X11/Type1/lmb10.afm'
p1409
aS'/usr/share/fonts/X11/Type1/lmvtko10.afm'
p1410
aS'/usr/share/fonts/type1/gsfonts/n019063l.afm'
p1411
aS'/usr/share/fonts/X11/Type1/c0611bt_.afm'
p1412
aS'/usr/share/fonts/X11/Type1/lmbo10.afm'
p1413
aS'/usr/share/fonts/type1/gsfonts/p052023l.afm'
p1414
aS'/usr/share/fonts/X11/Type1/lmri10.afm'
p1415
aS'/usr/share/fonts/type1/gsfonts/n019004l.afm'
p1416
aS'/usr/share/fonts/X11/Type1/lmssqbo8.afm'
p1417
aS'/usr/share/fonts/type1/gsfonts/p052003l.afm'
p1418
aS'/usr/share/fonts/X11/Type1/lmr10.afm'
p1419
aS'/usr/share/fonts/type1/gsfonts/a010015l.afm'
p1420
aS'/usr/share/fonts/X11/Type1/lmu10.afm'
p1421
aS'/usr/share/fonts/X11/Type1/lmssqbx8.afm'
p1422
aS'/usr/share/fonts/X11/Type1/lmtk10.afm'
p1423
aS'/usr/share/fonts/type1/gsfonts/c059036l.afm'
p1424
aS'/usr/share/fonts/type1/gsfonts/b018032l.afm'
p1425
aS'/usr/share/fonts/X11/Type1/lmcsco10.afm'
p1426
aS'/usr/share/fonts/X11/Type1/lmvtk10.afm'
p1427
aS'/usr/share/fonts/type1/gsfonts/c059016l.afm'
p1428
aS'/usr/share/fonts/X11/Type1/lmtko10.afm'
p1429
aS'/usr/share/fonts/type1/gsfonts/n022023l.afm'
p1430
aS'/usr/share/fonts/X11/Type1/lmtlco10.afm'
p1431
aS'/usr/share/fonts/type1/gsfonts/n021023l.afm'
p1432
aS'/usr/share/fonts/X11/Type1/lmcsc10.afm'
p1433
aS'/usr/share/fonts/X11/Type1/lmtlo10.afm'
p1434
aS'/usr/share/fonts/X11/Type1/lmssbo10.afm'
p1435
aS'/usr/share/fonts/X11/Type1/lmvtl10.afm'
p1436
aS'/usr/share/fonts/type1/gsfonts/a010035l.afm'
p1437
aS'/usr/share/fonts/type1/gsfonts/b018015l.afm'
p1438
aS'/usr/share/fonts/X11/Type1/c0419bt_.afm'
p1439
aS'/usr/share/fonts/X11/Type1/lmvtlo10.afm'
p1440
aS'/usr/share/fonts/X11/Type1/c0632bt_.afm'
p1441
aS'/usr/share/fonts/X11/Type1/lmbxo10.afm'
p1442
asS'afmlist'
p1443
(lp1444
g7
(g8
g9
NtRp1445
(dp1446
g12
g29
sg14
S'ITC Zapf Chancery'
p1447
sg16
I500
sg17
g13
sg18
g13
sg19
g1298
sg21
g22
sbag7
(g8
g9
NtRp1448
(dp1449
g12
g13
sg14
S'Helvetica'
p1450
sg16
I500
sg17
g13
sg18
g13
sg19
g1299
sg21
g22
sbag7
(g8
g9
NtRp1451
(dp1452
g12
g13
sg14
S'Helvetica'
p1453
sg16
I200
sg17
g13
sg18
g13
sg19
g1300
sg21
g22
sbag7
(g8
g9
NtRp1454
(dp1455
g12
g29
sg14
S'Utopia'
p1456
sg16
I700
sg17
g13
sg18
g13
sg19
g1301
sg21
g22
sbag7
(g8
g9
NtRp1457
(dp1458
g12
g29
sg14
S'Helvetica'
p1459
sg16
I700
sg17
g13
sg18
g13
sg19
g1302
sg21
g22
sbag7
(g8
g9
NtRp1460
(dp1461
g12
g29
sg14
S'Helvetica'
p1462
sg16
I500
sg17
g160
sg18
g13
sg19
g1303
sg21
g22
sbag7
(g8
g9
NtRp1463
(dp1464
g12
g13
sg14
S'ITC Bookman'
p1465
sg16
I600
sg17
g13
sg18
g13
sg19
g1304
sg21
g22
sbag7
(g8
g9
NtRp1466
(dp1467
g12
g29
sg14
S'Courier'
p1468
sg16
I700
sg17
g13
sg18
g13
sg19
g1305
sg21
g22
sbag7
(g8
g9
NtRp1469
(dp1470
g12
g13
sg14
S'Helvetica'
p1471
sg16
I700
sg17
g13
sg18
g13
sg19
g1306
sg21
g22
sbag7
(g8
g9
NtRp1472
(dp1473
g12
g29
sg14
S'Times'
p1474
sg16
I700
sg17
g13
sg18
g13
sg19
g1307
sg21
g22
sbag7
(g8
g9
NtRp1475
(dp1476
g12
g13
sg14
S'Utopia'
p1477
sg16
I400
sg17
g13
sg18
g13
sg19
g1308
sg21
g22
sbag7
(g8
g9
NtRp1478
(dp1479
g12
g29
sg14
S'ITC Avant Garde Gothic'
p1480
sg16
I600
sg17
g13
sg18
g13
sg19
g1309
sg21
g22
sbag7
(g8
g9
NtRp1481
(dp1482
g12
g13
sg14
S'Utopia'
p1483
sg16
I700
sg17
g13
sg18
g13
sg19
g1310
sg21
g22
sbag7
(g8
g9
NtRp1484
(dp1485
g12
g29
sg14
S'New Century Schoolbook'
p1486
sg16
I500
sg17
g13
sg18
g13
sg19
g1311
sg21
g22
sbag7
(g8
g9
NtRp1487
(dp1488
g12
g13
sg14
S'New Century Schoolbook'
p1489
sg16
I700
sg17
g13
sg18
g13
sg19
g1312
sg21
g22
sbag7
(g8
g9
NtRp1490
(dp1491
g12
g13
sg14
S'Courier'
p1492
sg16
I700
sg17
g13
sg18
g13
sg19
g1313
sg21
g22
sbag7
(g8
g9
NtRp1493
(dp1494
g12
g29
sg14
S'Courier'
p1495
sg16
I500
sg17
g13
sg18
g13
sg19
g1314
sg21
g22
sbag7
(g8
g9
NtRp1496
(dp1497
g12
g13
sg14
S'Computer Modern'
p1498
sg16
I500
sg17
g13
sg18
g13
sg19
g1315
sg21
g22
sbag7
(g8
g9
NtRp1499
(dp1500
g12
g13
sg14
S'Computer Modern'
p1501
sg16
I500
sg17
g13
sg18
g13
sg19
g1316
sg21
g22
sbag7
(g8
g9
NtRp1502
(dp1503
g12
g13
sg14
S'Symbol'
p1504
sg16
I500
sg17
g13
sg18
g13
sg19
g1317
sg21
g22
sbag7
(g8
g9
NtRp1505
(dp1506
g12
g13
sg14
S'Helvetica'
p1507
sg16
I500
sg17
g160
sg18
g13
sg19
g1318
sg21
g22
sbag7
(g8
g9
NtRp1508
(dp1509
g12
g29
sg14
S'Helvetica'
p1510
sg16
I500
sg17
g13
sg18
g13
sg19
g1319
sg21
g22
sbag7
(g8
g9
NtRp1511
(dp1512
g12
g13
sg14
S'Times'
p1513
sg16
I500
sg17
g13
sg18
g13
sg19
g1320
sg21
g22
sbag7
(g8
g9
NtRp1514
(dp1515
g12
g29
sg14
S'Helvetica'
p1516
sg16
I500
sg17
g13
sg18
g13
sg19
g1321
sg21
g22
sbag7
(g8
g9
NtRp1517
(dp1518
g12
g29
sg14
S'Palatino'
p1519
sg16
I700
sg17
g13
sg18
g13
sg19
g1322
sg21
g22
sbag7
(g8
g9
NtRp1520
(dp1521
g12
g29
sg14
S'Computer Modern'
p1522
sg16
I500
sg17
g13
sg18
g13
sg19
g1323
sg21
g22
sbag7
(g8
g9
NtRp1523
(dp1524
g12
g13
sg14
S'ITC Avant Garde Gothic'
p1525
sg16
I400
sg17
g13
sg18
g13
sg19
g1324
sg21
g22
sbag7
(g8
g9
NtRp1526
(dp1527
g12
g29
sg14
S'Courier'
p1528
sg16
I700
sg17
g13
sg18
g13
sg19
g1325
sg21
g22
sbag7
(g8
g9
NtRp1529
(dp1530
g12
g13
sg14
S'Courier'
p1531
sg16
I500
sg17
g13
sg18
g13
sg19
g1326
sg21
g22
sbag7
(g8
g9
NtRp1532
(dp1533
g12
g29
sg14
S'Computer Modern'
p1534
sg16
I500
sg17
g13
sg18
g13
sg19
g1327
sg21
g22
sbag7
(g8
g9
NtRp1535
(dp1536
g12
g29
sg14
S'ITC Avant Garde Gothic'
p1537
sg16
I400
sg17
g13
sg18
g13
sg19
g1328
sg21
g22
sbag7
(g8
g9
NtRp1538
(dp1539
g12
g29
sg14
S'ITC Bookman'
p1540
sg16
I600
sg17
g13
sg18
g13
sg19
g1329
sg21
g22
sbag7
(g8
g9
NtRp1541
(dp1542
g12
g29
sg14
S'Helvetica'
p1543
sg16
I700
sg17
g13
sg18
g13
sg19
g1330
sg21
g22
sbag7
(g8
g9
NtRp1544
(dp1545
g12
g13
sg14
S'Computer Modern'
p1546
sg16
I500
sg17
g13
sg18
g13
sg19
g1331
sg21
g22
sbag7
(g8
g9
NtRp1547
(dp1548
g12
g13
sg14
S'Times'
p1549
sg16
I700
sg17
g13
sg18
g13
sg19
g1332
sg21
g22
sbag7
(g8
g9
NtRp1550
(dp1551
g12
g13
sg14
S'Symbol'
p1552
sg16
I500
sg17
g13
sg18
g13
sg19
g1333
sg21
g22
sbag7
(g8
g9
NtRp1553
(dp1554
g12
g29
sg14
S'Helvetica'
p1555
sg16
I200
sg17
g13
sg18
g13
sg19
g1334
sg21
g22
sbag7
(g8
g9
NtRp1556
(dp1557
g12
g13
sg14
S'Helvetica'
p1558
sg16
I700
sg17
g13
sg18
g13
sg19
g1335
sg21
g22
sbag7
(g8
g9
NtRp1559
(dp1560
g12
g13
sg14
S'Palatino'
p1561
sg16
I700
sg17
g13
sg18
g13
sg19
g1336
sg21
g22
sbag7
(g8
g9
NtRp1562
(dp1563
g12
g13
sg14
S'ITC Zapf Dingbats'
p1564
sg16
I500
sg17
g13
sg18
g13
sg19
g1337
sg21
g22
sbag7
(g8
g9
NtRp1565
(dp1566
g12
g29
sg14
S'Times'
p1567
sg16
I500
sg17
g13
sg18
g13
sg19
g1338
sg21
g22
sbag7
(g8
g9
NtRp1568
(dp1569
g12
g13
sg14
S'Palatino'
p1570
sg16
I500
sg17
g13
sg18
g13
sg19
g1339
sg21
g22
sbag7
(g8
g9
NtRp1571
(dp1572
g12
g13
sg14
S'ITC Bookman'
p1573
sg16
I200
sg17
g13
sg18
g13
sg19
g1340
sg21
g22
sbag7
(g8
g9
NtRp1574
(dp1575
g12
g29
sg14
S'New Century Schoolbook'
p1576
sg16
I700
sg17
g13
sg18
g13
sg19
g1341
sg21
g22
sbag7
(g8
g9
NtRp1577
(dp1578
g12
g13
sg14
S'ZapfDingbats'
p1579
sg16
I500
sg17
g13
sg18
g13
sg19
g1342
sg21
g22
sbag7
(g8
g9
NtRp1580
(dp1581
g12
g13
sg14
S'Times'
p1582
sg16
I700
sg17
g13
sg18
g13
sg19
g1343
sg21
g22
sbag7
(g8
g9
NtRp1583
(dp1584
g12
g29
sg14
S'Utopia'
p1585
sg16
I400
sg17
g13
sg18
g13
sg19
g1344
sg21
g22
sbag7
(g8
g9
NtRp1586
(dp1587
g12
g29
sg14
S'Palatino'
p1588
sg16
I500
sg17
g13
sg18
g13
sg19
g1345
sg21
g22
sbag7
(g8
g9
NtRp1589
(dp1590
g12
g29
sg14
S'Times'
p1591
sg16
I700
sg17
g13
sg18
g13
sg19
g1346
sg21
g22
sbag7
(g8
g9
NtRp1592
(dp1593
g12
g29
sg14
S'ITC Bookman'
p1594
sg16
I200
sg17
g13
sg18
g13
sg19
g1347
sg21
g22
sbag7
(g8
g9
NtRp1595
(dp1596
g12
g29
sg14
S'Courier'
p1597
sg16
I500
sg17
g13
sg18
g13
sg19
g1348
sg21
g22
sbag7
(g8
g9
NtRp1598
(dp1599
g12
g13
sg14
S'Courier'
p1600
sg16
I700
sg17
g13
sg18
g13
sg19
g1349
sg21
g22
sbag7
(g8
g9
NtRp1601
(dp1602
g12
g13
sg14
S'ITC Avant Garde Gothic'
p1603
sg16
I600
sg17
g13
sg18
g13
sg19
g1350
sg21
g22
sbag7
(g8
g9
NtRp1604
(dp1605
g12
g13
sg14
S'New Century Schoolbook'
p1606
sg16
I500
sg17
g13
sg18
g13
sg19
g1351
sg21
g22
sbag7
(g8
g9
NtRp1607
(dp1608
g12
g29
sg14
S'Times'
p1609
sg16
I500
sg17
g13
sg18
g13
sg19
g1352
sg21
g22
sbag7
(g8
g9
NtRp1610
(dp1611
g12
g13
sg14
S'Times'
p1612
sg16
I500
sg17
g13
sg18
g13
sg19
g1353
sg21
g22
sbag7
(g8
g9
NtRp1613
(dp1614
g12
g29
sg14
S'Helvetica'
p1615
sg16
I700
sg17
g160
sg18
g13
sg19
g1354
sg21
g22
sbag7
(g8
g9
NtRp1616
(dp1617
g12
g13
sg14
S'Courier'
p1618
sg16
I500
sg17
g13
sg18
g13
sg19
g1355
sg21
g22
sbag7
(g8
g9
NtRp1619
(dp1620
g12
g13
sg14
S'Helvetica'
p1621
sg16
I500
sg17
g13
sg18
g13
sg19
g1356
sg21
g22
sbag7
(g8
g9
NtRp1622
(dp1623
g12
g13
sg14
S'Helvetica'
p1624
sg16
I700
sg17
g160
sg18
g13
sg19
g1357
sg21
g22
sbag7
(g8
g9
NtRp1625
(dp1626
g12
g29
sg14
S'Nimbus Roman No9 L'
p1627
sg16
I700
sg17
g13
sg18
g13
sg19
g1358
sg21
g22
sbag7
(g8
g9
NtRp1628
(dp1629
g12
g13
sg14
S'Standard Symbols L'
p1630
sg16
I400
sg17
g13
sg18
g13
sg19
g1359
sg21
g22
sbag7
(g8
g9
NtRp1631
(dp1632
g12
g13
sg14
S'Nimbus Roman No9 L'
p1633
sg16
I700
sg17
g13
sg18
g13
sg19
g1360
sg21
g22
sbag7
(g8
g9
NtRp1634
(dp1635
g12
g29
sg14
S'LMMonoSlant10'
p1636
sg16
I400
sg17
g13
sg18
g13
sg19
g1361
sg21
g22
sbag7
(g8
g9
NtRp1637
(dp1638
g12
g13
sg14
S'LMMono10'
p1639
sg16
I400
sg17
g13
sg18
g13
sg19
g1362
sg21
g22
sbag7
(g8
g9
NtRp1640
(dp1641
g12
g29
sg14
S'Nimbus Sans L'
p1642
sg16
I700
sg17
g13
sg18
g13
sg19
g1363
sg21
g22
sbag7
(g8
g9
NtRp1643
(dp1644
g12
g29
sg14
S'URW Palladio L'
p1645
sg16
I700
sg17
g13
sg18
g13
sg19
g1364
sg21
g22
sbag7
(g8
g9
NtRp1646
(dp1647
g12
g13
sg14
S'URW Palladio L'
p1648
sg16
I700
sg17
g13
sg18
g13
sg19
g1365
sg21
g22
sbag7
(g8
g9
NtRp1649
(dp1650
g12
g13
sg14
S'Bitstream Charter'
p1651
sg16
I400
sg17
g13
sg18
g13
sg19
g1366
sg21
g22
sbag7
(g8
g9
NtRp1652
(dp1653
g12
g29
sg14
S'LMRoman10'
p1654
sg16
I700
sg17
g13
sg18
g13
sg19
g1367
sg21
g22
sbag7
(g8
g9
NtRp1655
(dp1656
g12
g29
sg14
S'LMSansQuot8'
p1657
sg16
I400
sg17
g13
sg18
g13
sg19
g1368
sg21
g22
sbag7
(g8
g9
NtRp1658
(dp1659
g12
g13
sg14
S'URW Bookman L'
p1660
sg16
I400
sg17
g13
sg18
g13
sg19
g1369
sg21
g22
sbag7
(g8
g9
NtRp1661
(dp1662
g12
g13
sg14
S'Nimbus Mono L'
p1663
sg16
I400
sg17
g13
sg18
g13
sg19
g1370
sg21
g22
sbag7
(g8
g9
NtRp1664
(dp1665
g12
g13
sg14
S'Courier 10 Pitch'
p1666
sg16
I700
sg17
g13
sg18
g13
sg19
g1371
sg21
g22
sbag7
(g8
g9
NtRp1667
(dp1668
g12
g13
sg14
S'Century Schoolbook L'
p1669
sg16
I500
sg17
g13
sg18
g13
sg19
g1372
sg21
g22
sbag7
(g8
g9
NtRp1670
(dp1671
g12
g29
sg14
S'URW Gothic L'
p1672
sg16
I400
sg17
g13
sg18
g13
sg19
g1373
sg21
g22
sbag7
(g8
g9
NtRp1673
(dp1674
g12
g13
sg14
S'Nimbus Sans L'
p1675
sg16
I700
sg17
g160
sg18
g13
sg19
g1374
sg21
g22
sbag7
(g8
g9
NtRp1676
(dp1677
g12
g29
sg14
S'URW Chancery L'
p1678
sg16
I500
sg17
g13
sg18
g13
sg19
g1375
sg21
g22
sbag7
(g8
g9
NtRp1679
(dp1680
g12
g13
sg14
S'LMMonoCaps10'
p1681
sg16
I400
sg17
g13
sg18
g13
sg19
g1376
sg21
g22
sbag7
(g8
g9
NtRp1682
(dp1683
g12
g29
sg14
S'Nimbus Mono L'
p1684
sg16
I700
sg17
g13
sg18
g13
sg19
g1377
sg21
g22
sbag7
(g8
g9
NtRp1685
(dp1686
g12
g29
sg14
S'LMMonoCaps10'
p1687
sg16
I400
sg17
g13
sg18
g13
sg19
g1378
sg21
g22
sbag7
(g8
g9
NtRp1688
(dp1689
g12
g13
sg14
S'LMMonoLtCond10'
p1690
sg16
I200
sg17
g160
sg18
g13
sg19
g1379
sg21
g22
sbag7
(g8
g9
NtRp1691
(dp1692
g12
g29
sg14
S'Century Schoolbook L'
p1693
sg16
I400
sg17
g13
sg18
g13
sg19
g1380
sg21
g22
sbag7
(g8
g9
NtRp1694
(dp1695
g12
g13
sg14
S'LMSans10'
p1696
sg16
I700
sg17
g13
sg18
g13
sg19
g1382
sg21
g22
sbag7
(g8
g9
NtRp1697
(dp1698
g12
g29
sg14
S'Bitstream Charter'
p1699
sg16
I700
sg17
g13
sg18
g13
sg19
g1383
sg21
g22
sbag7
(g8
g9
NtRp1700
(dp1701
g12
g29
sg14
S'LMMonoProp10'
p1702
sg16
I400
sg17
g13
sg18
g13
sg19
g1384
sg21
g22
sbag7
(g8
g9
NtRp1703
(dp1704
g12
g13
sg14
S'LMRomanDunh10'
p1705
sg16
I400
sg17
g13
sg18
g13
sg19
g1385
sg21
g22
sbag7
(g8
g9
NtRp1706
(dp1707
g12
g29
sg14
S'Bitstream Charter'
p1708
sg16
I400
sg17
g13
sg18
g13
sg19
g1386
sg21
g22
sbag7
(g8
g9
NtRp1709
(dp1710
g12
g13
sg14
S'LMRoman10'
p1711
sg16
I700
sg17
g13
sg18
g13
sg19
g1387
sg21
g22
sbag7
(g8
g9
NtRp1712
(dp1713
g12
g29
sg14
S'Nimbus Sans L'
p1714
sg16
I700
sg17
g160
sg18
g13
sg19
g1388
sg21
g22
sbag7
(g8
g9
NtRp1715
(dp1716
g12
g13
sg14
S'Nimbus Sans L'
p1717
sg16
I400
sg17
g13
sg18
g13
sg19
g1389
sg21
g22
sbag7
(g8
g9
NtRp1718
(dp1719
g12
g13
sg14
S'Dingbats'
p1720
sg16
I400
sg17
g13
sg18
g13
sg19
g1390
sg21
g22
sbag7
(g8
g9
NtRp1721
(dp1722
g12
g29
sg14
S'URW Bookman L'
p1723
sg16
I700
sg17
g13
sg18
g13
sg19
g1391
sg21
g22
sbag7
(g8
g9
NtRp1724
(dp1725
g12
g13
sg14
S'LMMonoProp10'
p1726
sg16
I400
sg17
g13
sg18
g13
sg19
g1392
sg21
g22
sbag7
(g8
g9
NtRp1727
(dp1728
g12
g29
sg14
S'LMRomanDunh10'
p1729
sg16
I400
sg17
g13
sg18
g13
sg19
g1393
sg21
g22
sbag7
(g8
g9
NtRp1730
(dp1731
g12
g13
sg14
S'URW Gothic L'
p1732
sg16
I400
sg17
g13
sg18
g13
sg19
g1394
sg21
g22
sbag7
(g8
g9
NtRp1733
(dp1734
g12
g29
sg14
S'Courier 10 Pitch'
p1735
sg16
I400
sg17
g13
sg18
g13
sg19
g1395
sg21
g22
sbag7
(g8
g9
NtRp1736
(dp1737
g12
g29
sg14
S'LMSansDemiCond10'
p1738
sg16
I600
sg17
g160
sg18
g13
sg19
g1396
sg21
g22
sbag7
(g8
g9
NtRp1739
(dp1740
g12
g13
sg14
S'Nimbus Mono L'
p1741
sg16
I700
sg17
g13
sg18
g13
sg19
g1397
sg21
g22
sbag7
(g8
g9
NtRp1742
(dp1743
g12
g13
sg14
S'LMSansQuot8'
p1744
sg16
I400
sg17
g13
sg18
g13
sg19
g1398
sg21
g22
sbag7
(g8
g9
NtRp1745
(dp1746
g12
g13
sg14
S'LMSans10'
p1747
sg16
I400
sg17
g13
sg18
g13
sg19
g1399
sg21
g22
sbag7
(g8
g9
NtRp1748
(dp1749
g12
g29
sg14
S'LMMono10'
p1750
sg16
I400
sg17
g13
sg18
g13
sg19
g1401
sg21
g22
sbag7
(g8
g9
NtRp1751
(dp1752
g12
g29
sg14
S'LMRomanSlant10'
p1753
sg16
I400
sg17
g13
sg18
g13
sg19
g1402
sg21
g22
sbag7
(g8
g9
NtRp1754
(dp1755
g12
g13
sg14
S'Nimbus Roman No9 L'
p1756
sg16
I400
sg17
g13
sg18
g13
sg19
g1403
sg21
g22
sbag7
(g8
g9
NtRp1757
(dp1758
g12
g13
sg14
S'Nimbus Sans L'
p1759
sg16
I400
sg17
g160
sg18
g13
sg19
g1404
sg21
g22
sbag7
(g8
g9
NtRp1760
(dp1761
g12
g13
sg14
S'LMSansDemiCond10'
p1762
sg16
I600
sg17
g160
sg18
g13
sg19
g1405
sg21
g22
sbag7
(g8
g9
NtRp1763
(dp1764
g12
g29
sg14
S'LMSans10'
p1765
sg16
I400
sg17
g13
sg18
g13
sg19
g1406
sg21
g22
sbag7
(g8
g9
NtRp1766
(dp1767
g12
g29
sg14
S'Nimbus Sans L'
p1768
sg16
I400
sg17
g13
sg18
g13
sg19
g1407
sg21
g22
sbag7
(g8
g9
NtRp1769
(dp1770
g12
g13
sg14
S'LMMonoLt10'
p1771
sg16
I200
sg17
g13
sg18
g13
sg19
g1408
sg21
g22
sbag7
(g8
g9
NtRp1772
(dp1773
g12
g13
sg14
S'LMRomanDemi10'
p1774
sg16
I600
sg17
g13
sg18
g13
sg19
g1409
sg21
g22
sbag7
(g8
g9
NtRp1775
(dp1776
g12
g29
sg14
S'LMMonoPropLt10'
p1777
sg16
I700
sg17
g13
sg18
g13
sg19
g1410
sg21
g22
sbag7
(g8
g9
NtRp1778
(dp1779
g12
g29
sg14
S'Nimbus Sans L'
p1780
sg16
I400
sg17
g160
sg18
g13
sg19
g1411
sg21
g22
sbag7
(g8
g9
NtRp1781
(dp1782
g12
g29
sg14
S'Courier 10 Pitch'
p1783
sg16
I700
sg17
g13
sg18
g13
sg19
g1412
sg21
g22
sbag7
(g8
g9
NtRp1784
(dp1785
g12
g29
sg14
S'LMRomanDemi10'
p1786
sg16
I600
sg17
g13
sg18
g13
sg19
g1413
sg21
g22
sbag7
(g8
g9
NtRp1787
(dp1788
g12
g29
sg14
S'URW Palladio L'
p1789
sg16
I400
sg17
g13
sg18
g13
sg19
g1414
sg21
g22
sbag7
(g8
g9
NtRp1790
(dp1791
g12
g29
sg14
S'LMRoman10'
p1792
sg16
I400
sg17
g13
sg18
g13
sg19
g1415
sg21
g22
sbag7
(g8
g9
NtRp1793
(dp1794
g12
g13
sg14
S'Nimbus Sans L'
p1795
sg16
I700
sg17
g13
sg18
g13
sg19
g1416
sg21
g22
sbag7
(g8
g9
NtRp1796
(dp1797
g12
g29
sg14
S'LMSansQuot8'
p1798
sg16
I700
sg17
g13
sg18
g13
sg19
g1417
sg21
g22
sbag7
(g8
g9
NtRp1799
(dp1800
g12
g13
sg14
S'URW Palladio L'
p1801
sg16
I500
sg17
g13
sg18
g13
sg19
g1418
sg21
g22
sbag7
(g8
g9
NtRp1802
(dp1803
g12
g13
sg14
S'LMRoman10'
p1804
sg16
I400
sg17
g13
sg18
g13
sg19
g1419
sg21
g22
sbag7
(g8
g9
NtRp1805
(dp1806
g12
g13
sg14
S'URW Gothic L'
p1807
sg16
I600
sg17
g13
sg18
g13
sg19
g1420
sg21
g22
sbag7
(g8
g9
NtRp1808
(dp1809
g12
g13
sg14
S'LMRomanUnsl10'
p1810
sg16
I400
sg17
g13
sg18
g13
sg19
g1421
sg21
g22
sbag7
(g8
g9
NtRp1811
(dp1812
g12
g13
sg14
S'LMSansQuot8'
p1813
sg16
I700
sg17
g13
sg18
g13
sg19
g1422
sg21
g22
sbag7
(g8
g9
NtRp1814
(dp1815
g12
g13
sg14
S'LMMonoLt10'
p1816
sg16
I700
sg17
g13
sg18
g13
sg19
g1423
sg21
g22
sbag7
(g8
g9
NtRp1817
(dp1818
g12
g29
sg14
S'Century Schoolbook L'
p1819
sg16
I700
sg17
g13
sg18
g13
sg19
g1424
sg21
g22
sbag7
(g8
g9
NtRp1820
(dp1821
g12
g29
sg14
S'URW Bookman L'
p1822
sg16
I400
sg17
g13
sg18
g13
sg19
g1425
sg21
g22
sbag7
(g8
g9
NtRp1823
(dp1824
g12
g29
sg14
S'LMRomanCaps10'
p1825
sg16
I400
sg17
g13
sg18
g13
sg19
g1426
sg21
g22
sbag7
(g8
g9
NtRp1826
(dp1827
g12
g13
sg14
S'LMMonoPropLt10'
p1828
sg16
I700
sg17
g13
sg18
g13
sg19
g1427
sg21
g22
sbag7
(g8
g9
NtRp1829
(dp1830
g12
g13
sg14
S'Century Schoolbook L'
p1831
sg16
I700
sg17
g13
sg18
g13
sg19
g1428
sg21
g22
sbag7
(g8
g9
NtRp1832
(dp1833
g12
g29
sg14
S'LMMonoLt10'
p1834
sg16
I700
sg17
g13
sg18
g13
sg19
g1429
sg21
g22
sbag7
(g8
g9
NtRp1835
(dp1836
g12
g29
sg14
S'Nimbus Mono L'
p1837
sg16
I400
sg17
g13
sg18
g13
sg19
g1430
sg21
g22
sbag7
(g8
g9
NtRp1838
(dp1839
g12
g29
sg14
S'LMMonoLtCond10'
p1840
sg16
I200
sg17
g160
sg18
g13
sg19
g1431
sg21
g22
sbag7
(g8
g9
NtRp1841
(dp1842
g12
g29
sg14
S'Nimbus Roman No9 L'
p1843
sg16
I400
sg17
g13
sg18
g13
sg19
g1432
sg21
g22
sbag7
(g8
g9
NtRp1844
(dp1845
g12
g13
sg14
S'LMRomanCaps10'
p1846
sg16
I400
sg17
g13
sg18
g13
sg19
g1433
sg21
g22
sbag7
(g8
g9
NtRp1847
(dp1848
g12
g29
sg14
S'LMMonoLt10'
p1849
sg16
I200
sg17
g13
sg18
g13
sg19
g1434
sg21
g22
sbag7
(g8
g9
NtRp1850
(dp1851
g12
g29
sg14
S'LMSans10'
p1852
sg16
I700
sg17
g13
sg18
g13
sg19
g1435
sg21
g22
sbag7
(g8
g9
NtRp1853
(dp1854
g12
g13
sg14
S'LMMonoPropLt10'
p1855
sg16
I200
sg17
g13
sg18
g13
sg19
g1436
sg21
g22
sbag7
(g8
g9
NtRp1856
(dp1857
g12
g29
sg14
S'URW Gothic L'
p1858
sg16
I600
sg17
g13
sg18
g13
sg19
g1437
sg21
g22
sbag7
(g8
g9
NtRp1859
(dp1860
g12
g13
sg14
S'URW Bookman L'
p1861
sg16
I700
sg17
g13
sg18
g13
sg19
g1438
sg21
g22
sbag7
(g8
g9
NtRp1862
(dp1863
g12
g13
sg14
S'Courier 10 Pitch'
p1864
sg16
I400
sg17
g13
sg18
g13
sg19
g1439
sg21
g22
sbag7
(g8
g9
NtRp1865
(dp1866
g12
g29
sg14
S'LMMonoPropLt10'
p1867
sg16
I200
sg17
g13
sg18
g13
sg19
g1440
sg21
g22
sbag7
(g8
g9
NtRp1868
(dp1869
g12
g13
sg14
S'Bitstream Charter'
p1870
sg16
I700
sg17
g13
sg18
g13
sg19
g1441
sg21
g22
sbag7
(g8
g9
NtRp1871
(dp1872
g12
g29
sg14
S'LMRomanSlant10'
p1873
sg16
I700
sg17
g13
sg18
g13
sg19
g1442
sg21
g22
sbasb.